
code.elf:     file format elf32-avr


Disassembly of section .text:

00000000 <__vectors>:
   0:	0c 94 24 01 	jmp	0x248	; 0x248 <__ctors_end>
   4:	0c 94 43 01 	jmp	0x286	; 0x286 <__vector_1>
   8:	0c 94 50 01 	jmp	0x2a0	; 0x2a0 <__vector_2>
   c:	0c 94 41 01 	jmp	0x282	; 0x282 <__bad_interrupt>
  10:	0c 94 41 01 	jmp	0x282	; 0x282 <__bad_interrupt>
  14:	0c 94 41 01 	jmp	0x282	; 0x282 <__bad_interrupt>
  18:	0c 94 41 01 	jmp	0x282	; 0x282 <__bad_interrupt>
  1c:	0c 94 e0 01 	jmp	0x3c0	; 0x3c0 <__vector_7>
  20:	0c 94 41 01 	jmp	0x282	; 0x282 <__bad_interrupt>
  24:	0c 94 41 01 	jmp	0x282	; 0x282 <__bad_interrupt>
  28:	0c 94 41 01 	jmp	0x282	; 0x282 <__bad_interrupt>
  2c:	0c 94 41 01 	jmp	0x282	; 0x282 <__bad_interrupt>
  30:	0c 94 41 01 	jmp	0x282	; 0x282 <__bad_interrupt>
  34:	0c 94 41 01 	jmp	0x282	; 0x282 <__bad_interrupt>
  38:	0c 94 41 01 	jmp	0x282	; 0x282 <__bad_interrupt>
  3c:	0c 94 41 01 	jmp	0x282	; 0x282 <__bad_interrupt>
  40:	0c 94 41 01 	jmp	0x282	; 0x282 <__bad_interrupt>
  44:	0c 94 41 01 	jmp	0x282	; 0x282 <__bad_interrupt>
  48:	0c 94 41 01 	jmp	0x282	; 0x282 <__bad_interrupt>
  4c:	0c 94 41 01 	jmp	0x282	; 0x282 <__bad_interrupt>
  50:	0c 94 41 01 	jmp	0x282	; 0x282 <__bad_interrupt>
  54:	0c 94 41 01 	jmp	0x282	; 0x282 <__bad_interrupt>
  58:	0c 94 41 01 	jmp	0x282	; 0x282 <__bad_interrupt>
  5c:	0c 94 41 01 	jmp	0x282	; 0x282 <__bad_interrupt>
  60:	0c 94 41 01 	jmp	0x282	; 0x282 <__bad_interrupt>
  64:	0c 94 41 01 	jmp	0x282	; 0x282 <__bad_interrupt>

00000068 <CHARSET>:
  68:	00 00 00 00 00 00 00 5f 00 00 00 07 00 07 00 14     ......._........
  78:	7f 14 7f 14 24 2a 7f 2a 12 23 13 08 64 62 36 49     ....$*.*.#..db6I
  88:	55 22 50 00 05 03 00 00 00 1c 22 41 00 00 41 22     U"P......."A..A"
  98:	1c 00 14 08 3e 08 14 08 08 3e 08 08 00 50 30 00     ....>....>...P0.
  a8:	00 08 08 08 08 08 00 60 60 00 00 20 10 08 04 02     .......``.. ....
  b8:	3e 51 49 45 3e 00 42 7f 40 00 42 61 51 49 46 21     >QIE>.B.@.BaQIF!
  c8:	41 45 4b 31 18 14 12 7f 10 27 45 45 45 39 3c 4a     AEK1.....'EEE9<J
  d8:	49 49 30 01 71 09 05 03 36 49 49 49 36 06 49 49     II0.q...6III6.II
  e8:	29 1e 00 36 36 00 00 00 56 36 00 00 08 14 22 41     )..66...V6...."A
  f8:	00 14 14 14 14 14 00 41 22 14 08 02 01 51 09 06     .......A"....Q..
 108:	32 49 79 41 3e 7e 11 11 11 7e 7f 49 49 49 36 3e     2IyA>~...~.III6>
 118:	41 41 41 22 7f 41 41 22 1c 7f 49 49 49 41 7f 09     AAA".AA"..IIIA..
 128:	09 09 01 3e 41 49 49 7a 7f 08 08 08 7f 00 41 7f     ...>AIIz......A.
 138:	41 00 20 40 41 3f 01 7f 08 14 22 41 7f 40 40 40     A. @A?...."A.@@@
 148:	40 7f 02 0c 02 7f 7f 04 08 10 7f 3e 41 41 41 3e     @..........>AAA>
 158:	7f 09 09 09 06 3e 41 51 21 5e 7f 09 19 29 46 46     .....>AQ!^...)FF
 168:	49 49 49 31 01 01 7f 01 01 3f 40 40 40 3f 1f 20     III1.....?@@@?. 
 178:	40 20 1f 3f 40 38 40 3f 63 14 08 14 63 07 08 70     @ .?@8@?c...c..p
 188:	08 07 61 51 49 45 43 00 7f 41 41 00 02 04 08 10     ..aQIEC..AA.....
 198:	20 00 41 41 7f 00 04 02 01 02 04 40 40 40 40 40      .AA.......@@@@@
 1a8:	00 01 02 04 00 20 54 54 54 78 7f 48 44 44 38 38     ..... TTTx.HDD88
 1b8:	44 44 44 20 38 44 44 48 7f 38 54 54 54 18 08 7e     DDD 8DDH.8TTT..~
 1c8:	09 01 02 0c 52 52 52 3e 7f 08 04 04 78 00 44 7d     ....RRR>....x.D}
 1d8:	40 00 20 40 44 3d 00 7f 10 28 44 00 00 41 7f 40     @. @D=...(D..A.@
 1e8:	00 7c 04 18 04 78 7c 08 04 04 78 38 44 44 44 38     .|...x|...x8DDD8
 1f8:	7c 14 14 14 08 08 14 14 18 7c 7c 08 04 04 08 48     |........||....H
 208:	54 54 54 20 04 3f 44 40 20 3c 40 40 20 7c 1c 20     TTT .?D@ <@@ |. 
 218:	40 20 1c 3c 40 30 40 3c 44 28 10 28 44 0c 50 50     @ .<@0@<D(.(D.PP
 228:	50 3c 44 64 54 4c 44 00 08 36 41 00 00 00 7f 00     P<DdTLD..6A.....
 238:	00 00 41 36 08 00 10 08 08 10 08 00 00 00 00 00     ..A6............

00000248 <__ctors_end>:
 248:	11 24       	eor	r1, r1
 24a:	1f be       	out	0x3f, r1	; 63
 24c:	cf ef       	ldi	r28, 0xFF	; 255
 24e:	d8 e0       	ldi	r29, 0x08	; 8
 250:	de bf       	out	0x3e, r29	; 62
 252:	cd bf       	out	0x3d, r28	; 61

00000254 <__do_copy_data>:
 254:	11 e0       	ldi	r17, 0x01	; 1
 256:	a0 e0       	ldi	r26, 0x00	; 0
 258:	b1 e0       	ldi	r27, 0x01	; 1
 25a:	e8 ea       	ldi	r30, 0xA8	; 168
 25c:	fb e0       	ldi	r31, 0x0B	; 11
 25e:	02 c0       	rjmp	.+4      	; 0x264 <__do_copy_data+0x10>
 260:	05 90       	lpm	r0, Z+
 262:	0d 92       	st	X+, r0
 264:	a0 34       	cpi	r26, 0x40	; 64
 266:	b1 07       	cpc	r27, r17
 268:	d9 f7       	brne	.-10     	; 0x260 <__do_copy_data+0xc>

0000026a <__do_clear_bss>:
 26a:	23 e0       	ldi	r18, 0x03	; 3
 26c:	a0 e4       	ldi	r26, 0x40	; 64
 26e:	b1 e0       	ldi	r27, 0x01	; 1
 270:	01 c0       	rjmp	.+2      	; 0x274 <.do_clear_bss_start>

00000272 <.do_clear_bss_loop>:
 272:	1d 92       	st	X+, r1

00000274 <.do_clear_bss_start>:
 274:	a4 38       	cpi	r26, 0x84	; 132
 276:	b2 07       	cpc	r27, r18
 278:	e1 f7       	brne	.-8      	; 0x272 <.do_clear_bss_loop>
 27a:	0e 94 d1 03 	call	0x7a2	; 0x7a2 <main>
 27e:	0c 94 d2 05 	jmp	0xba4	; 0xba4 <_exit>

00000282 <__bad_interrupt>:
 282:	0c 94 00 00 	jmp	0	; 0x0 <__vectors>

00000286 <__vector_1>:
 286:	8f 93       	push	r24
 288:	8f b7       	in	r24, 0x3f	; 63
 28a:	8f 93       	push	r24
 28c:	9f 93       	push	r25
 28e:	85 b1       	in	r24, 0x05	; 5
 290:	92 e0       	ldi	r25, 0x02	; 2
 292:	89 27       	eor	r24, r25
 294:	85 b9       	out	0x05, r24	; 5
 296:	9f 91       	pop	r25
 298:	8f 91       	pop	r24
 29a:	8f bf       	out	0x3f, r24	; 63
 29c:	8f 91       	pop	r24
 29e:	18 95       	reti

000002a0 <__vector_2>:
 2a0:	8f 93       	push	r24
 2a2:	8f b7       	in	r24, 0x3f	; 63
 2a4:	8f 93       	push	r24
 2a6:	9f 93       	push	r25
 2a8:	85 b1       	in	r24, 0x05	; 5
 2aa:	94 e0       	ldi	r25, 0x04	; 4
 2ac:	89 27       	eor	r24, r25
 2ae:	85 b9       	out	0x05, r24	; 5
 2b0:	9f 91       	pop	r25
 2b2:	8f 91       	pop	r24
 2b4:	8f bf       	out	0x3f, r24	; 63
 2b6:	8f 91       	pop	r24
 2b8:	18 95       	reti

000002ba <tela_inicial>:
 2ba:	61 e1       	ldi	r22, 0x11	; 17
 2bc:	8a e0       	ldi	r24, 0x0A	; 10
 2be:	0e 94 b7 03 	call	0x76e	; 0x76e <nokia_lcd_set_cursor>
 2c2:	61 e0       	ldi	r22, 0x01	; 1
 2c4:	85 e1       	ldi	r24, 0x15	; 21
 2c6:	91 e0       	ldi	r25, 0x01	; 1
 2c8:	0e 94 a7 03 	call	0x74e	; 0x74e <nokia_lcd_write_string>
 2cc:	69 e1       	ldi	r22, 0x19	; 25
 2ce:	85 e0       	ldi	r24, 0x05	; 5
 2d0:	0e 94 b7 03 	call	0x76e	; 0x76e <nokia_lcd_set_cursor>
 2d4:	61 e0       	ldi	r22, 0x01	; 1
 2d6:	80 e2       	ldi	r24, 0x20	; 32
 2d8:	91 e0       	ldi	r25, 0x01	; 1
 2da:	0e 94 a7 03 	call	0x74e	; 0x74e <nokia_lcd_write_string>
 2de:	0e 94 bc 03 	call	0x778	; 0x778 <nokia_lcd_render>
 2e2:	18 99       	sbic	0x03, 0	; 3
 2e4:	02 c0       	rjmp	.+4      	; 0x2ea <tela_inicial+0x30>
 2e6:	18 9b       	sbis	0x03, 0	; 3
 2e8:	fc cf       	rjmp	.-8      	; 0x2e2 <tela_inicial+0x28>
 2ea:	08 95       	ret

000002ec <atualiza_flecha>:
 2ec:	80 91 41 01 	lds	r24, 0x0141	; 0x800141 <flecha_posicao>
 2f0:	9c ef       	ldi	r25, 0xFC	; 252
 2f2:	98 0f       	add	r25, r24
 2f4:	9d 33       	cpi	r25, 0x3D	; 61
 2f6:	b8 f4       	brcc	.+46     	; 0x326 <atualiza_flecha+0x3a>
 2f8:	60 91 40 01 	lds	r22, 0x0140	; 0x800140 <arrow_position>
 2fc:	0e 94 b7 03 	call	0x76e	; 0x76e <nokia_lcd_set_cursor>
 300:	62 e0       	ldi	r22, 0x02	; 2
 302:	8d e2       	ldi	r24, 0x2D	; 45
 304:	91 e0       	ldi	r25, 0x01	; 1
 306:	0e 94 a7 03 	call	0x74e	; 0x74e <nokia_lcd_write_string>
 30a:	60 91 40 01 	lds	r22, 0x0140	; 0x800140 <arrow_position>
 30e:	6c 30       	cpi	r22, 0x0C	; 12
 310:	50 f0       	brcs	.+20     	; 0x326 <atualiza_flecha+0x3a>
 312:	6c 50       	subi	r22, 0x0C	; 12
 314:	80 91 41 01 	lds	r24, 0x0141	; 0x800141 <flecha_posicao>
 318:	0e 94 b7 03 	call	0x76e	; 0x76e <nokia_lcd_set_cursor>
 31c:	62 e0       	ldi	r22, 0x02	; 2
 31e:	8f e2       	ldi	r24, 0x2F	; 47
 320:	91 e0       	ldi	r25, 0x01	; 1
 322:	0c 94 a7 03 	jmp	0x74e	; 0x74e <nokia_lcd_write_string>
 326:	08 95       	ret

00000328 <inicia_rua>:
 328:	cf 93       	push	r28
 32a:	df 93       	push	r29
 32c:	ec 01       	movw	r28, r24
 32e:	68 2f       	mov	r22, r24
 330:	80 e0       	ldi	r24, 0x00	; 0
 332:	0e 94 b7 03 	call	0x76e	; 0x76e <nokia_lcd_set_cursor>
 336:	63 e0       	ldi	r22, 0x03	; 3
 338:	81 e3       	ldi	r24, 0x31	; 49
 33a:	91 e0       	ldi	r25, 0x01	; 1
 33c:	0e 94 a7 03 	call	0x74e	; 0x74e <nokia_lcd_write_string>
 340:	6c 2f       	mov	r22, r28
 342:	8f e0       	ldi	r24, 0x0F	; 15
 344:	0e 94 b7 03 	call	0x76e	; 0x76e <nokia_lcd_set_cursor>
 348:	63 e0       	ldi	r22, 0x03	; 3
 34a:	81 e3       	ldi	r24, 0x31	; 49
 34c:	91 e0       	ldi	r25, 0x01	; 1
 34e:	0e 94 a7 03 	call	0x74e	; 0x74e <nokia_lcd_write_string>
 352:	6c 2f       	mov	r22, r28
 354:	8e e1       	ldi	r24, 0x1E	; 30
 356:	0e 94 b7 03 	call	0x76e	; 0x76e <nokia_lcd_set_cursor>
 35a:	63 e0       	ldi	r22, 0x03	; 3
 35c:	81 e3       	ldi	r24, 0x31	; 49
 35e:	91 e0       	ldi	r25, 0x01	; 1
 360:	0e 94 a7 03 	call	0x74e	; 0x74e <nokia_lcd_write_string>
 364:	6c 2f       	mov	r22, r28
 366:	8d e2       	ldi	r24, 0x2D	; 45
 368:	0e 94 b7 03 	call	0x76e	; 0x76e <nokia_lcd_set_cursor>
 36c:	63 e0       	ldi	r22, 0x03	; 3
 36e:	81 e3       	ldi	r24, 0x31	; 49
 370:	91 e0       	ldi	r25, 0x01	; 1
 372:	0e 94 a7 03 	call	0x74e	; 0x74e <nokia_lcd_write_string>
 376:	6c 2f       	mov	r22, r28
 378:	8c e3       	ldi	r24, 0x3C	; 60
 37a:	0e 94 b7 03 	call	0x76e	; 0x76e <nokia_lcd_set_cursor>
 37e:	63 e0       	ldi	r22, 0x03	; 3
 380:	81 e3       	ldi	r24, 0x31	; 49
 382:	91 e0       	ldi	r25, 0x01	; 1
 384:	0e 94 a7 03 	call	0x74e	; 0x74e <nokia_lcd_write_string>
 388:	6c 2f       	mov	r22, r28
 38a:	8b e4       	ldi	r24, 0x4B	; 75
 38c:	0e 94 b7 03 	call	0x76e	; 0x76e <nokia_lcd_set_cursor>
 390:	62 e0       	ldi	r22, 0x02	; 2
 392:	81 e3       	ldi	r24, 0x31	; 49
 394:	91 e0       	ldi	r25, 0x01	; 1
 396:	0e 94 a7 03 	call	0x74e	; 0x74e <nokia_lcd_write_string>
 39a:	df 91       	pop	r29
 39c:	cf 91       	pop	r28
 39e:	0c 94 bc 03 	jmp	0x778	; 0x778 <nokia_lcd_render>

000003a2 <geraFlecha>:
 3a2:	0e 94 56 05 	call	0xaac	; 0xaac <rand>
 3a6:	65 e0       	ldi	r22, 0x05	; 5
 3a8:	70 e0       	ldi	r23, 0x00	; 0
 3aa:	0e 94 c6 04 	call	0x98c	; 0x98c <__divmodhi4>
 3ae:	4f e0       	ldi	r20, 0x0F	; 15
 3b0:	48 9f       	mul	r20, r24
 3b2:	90 01       	movw	r18, r0
 3b4:	49 9f       	mul	r20, r25
 3b6:	30 0d       	add	r19, r0
 3b8:	11 24       	eor	r1, r1
 3ba:	c9 01       	movw	r24, r18
 3bc:	04 96       	adiw	r24, 0x04	; 4
 3be:	08 95       	ret

000003c0 <__vector_7>:
 3c0:	1f 92       	push	r1
 3c2:	0f 92       	push	r0
 3c4:	0f b6       	in	r0, 0x3f	; 63
 3c6:	0f 92       	push	r0
 3c8:	11 24       	eor	r1, r1
 3ca:	2f 93       	push	r18
 3cc:	3f 93       	push	r19
 3ce:	4f 93       	push	r20
 3d0:	5f 93       	push	r21
 3d2:	6f 93       	push	r22
 3d4:	7f 93       	push	r23
 3d6:	8f 93       	push	r24
 3d8:	9f 93       	push	r25
 3da:	af 93       	push	r26
 3dc:	bf 93       	push	r27
 3de:	ef 93       	push	r30
 3e0:	ff 93       	push	r31
 3e2:	80 91 42 01 	lds	r24, 0x0142	; 0x800142 <milisegundos>
 3e6:	8f 5f       	subi	r24, 0xFF	; 255
 3e8:	80 93 42 01 	sts	0x0142, r24	; 0x800142 <milisegundos>
 3ec:	84 36       	cpi	r24, 0x64	; 100
 3ee:	a0 f0       	brcs	.+40     	; 0x418 <__LOCK_REGION_LENGTH__+0x18>
 3f0:	10 92 42 01 	sts	0x0142, r1	; 0x800142 <milisegundos>
 3f4:	80 91 43 01 	lds	r24, 0x0143	; 0x800143 <segundos>
 3f8:	8f 5f       	subi	r24, 0xFF	; 255
 3fa:	8c 33       	cpi	r24, 0x3C	; 60
 3fc:	50 f1       	brcs	.+84     	; 0x452 <__LOCK_REGION_LENGTH__+0x52>
 3fe:	10 92 43 01 	sts	0x0143, r1	; 0x800143 <segundos>
 402:	80 91 44 01 	lds	r24, 0x0144	; 0x800144 <minutos>
 406:	8f 5f       	subi	r24, 0xFF	; 255
 408:	80 93 44 01 	sts	0x0144, r24	; 0x800144 <minutos>
 40c:	80 91 40 01 	lds	r24, 0x0140	; 0x800140 <arrow_position>
 410:	8f 5f       	subi	r24, 0xFF	; 255
 412:	80 93 40 01 	sts	0x0140, r24	; 0x800140 <arrow_position>
 416:	02 c0       	rjmp	.+4      	; 0x41c <__LOCK_REGION_LENGTH__+0x1c>
 418:	83 70       	andi	r24, 0x03	; 3
 41a:	c1 f3       	breq	.-16     	; 0x40c <__LOCK_REGION_LENGTH__+0xc>
 41c:	80 91 40 01 	lds	r24, 0x0140	; 0x800140 <arrow_position>
 420:	8d 33       	cpi	r24, 0x3D	; 61
 422:	30 f0       	brcs	.+12     	; 0x430 <__LOCK_REGION_LENGTH__+0x30>
 424:	10 92 40 01 	sts	0x0140, r1	; 0x800140 <arrow_position>
 428:	0e 94 d1 01 	call	0x3a2	; 0x3a2 <geraFlecha>
 42c:	80 93 41 01 	sts	0x0141, r24	; 0x800141 <flecha_posicao>
 430:	ff 91       	pop	r31
 432:	ef 91       	pop	r30
 434:	bf 91       	pop	r27
 436:	af 91       	pop	r26
 438:	9f 91       	pop	r25
 43a:	8f 91       	pop	r24
 43c:	7f 91       	pop	r23
 43e:	6f 91       	pop	r22
 440:	5f 91       	pop	r21
 442:	4f 91       	pop	r20
 444:	3f 91       	pop	r19
 446:	2f 91       	pop	r18
 448:	0f 90       	pop	r0
 44a:	0f be       	out	0x3f, r0	; 63
 44c:	0f 90       	pop	r0
 44e:	1f 90       	pop	r1
 450:	18 95       	reti
 452:	80 93 43 01 	sts	0x0143, r24	; 0x800143 <segundos>
 456:	da cf       	rjmp	.-76     	; 0x40c <__LOCK_REGION_LENGTH__+0xc>

00000458 <morreu>:
 458:	20 91 41 01 	lds	r18, 0x0141	; 0x800141 <flecha_posicao>
 45c:	80 91 00 01 	lds	r24, 0x0100	; 0x800100 <x>
 460:	90 91 01 01 	lds	r25, 0x0101	; 0x800101 <x+0x1>
 464:	28 17       	cp	r18, r24
 466:	19 06       	cpc	r1, r25
 468:	a9 f5       	brne	.+106    	; 0x4d4 <morreu+0x7c>
 46a:	80 91 40 01 	lds	r24, 0x0140	; 0x800140 <arrow_position>
 46e:	8a 51       	subi	r24, 0x1A	; 26
 470:	8e 30       	cpi	r24, 0x0E	; 14
 472:	80 f5       	brcc	.+96     	; 0x4d4 <morreu+0x7c>
 474:	0e 94 cd 02 	call	0x59a	; 0x59a <nokia_lcd_clear>
 478:	61 e1       	ldi	r22, 0x11	; 17
 47a:	8a e0       	ldi	r24, 0x0A	; 10
 47c:	0e 94 b7 03 	call	0x76e	; 0x76e <nokia_lcd_set_cursor>
 480:	61 e0       	ldi	r22, 0x01	; 1
 482:	83 e3       	ldi	r24, 0x33	; 51
 484:	91 e0       	ldi	r25, 0x01	; 1
 486:	0e 94 a7 03 	call	0x74e	; 0x74e <nokia_lcd_write_string>
 48a:	69 e1       	ldi	r22, 0x19	; 25
 48c:	85 e0       	ldi	r24, 0x05	; 5
 48e:	0e 94 b7 03 	call	0x76e	; 0x76e <nokia_lcd_set_cursor>
 492:	61 e0       	ldi	r22, 0x01	; 1
 494:	80 e2       	ldi	r24, 0x20	; 32
 496:	91 e0       	ldi	r25, 0x01	; 1
 498:	0e 94 a7 03 	call	0x74e	; 0x74e <nokia_lcd_write_string>
 49c:	0e 94 bc 03 	call	0x778	; 0x778 <nokia_lcd_render>
 4a0:	18 9b       	sbis	0x03, 0	; 3
 4a2:	fe cf       	rjmp	.-4      	; 0x4a0 <morreu+0x48>
 4a4:	10 92 40 01 	sts	0x0140, r1	; 0x800140 <arrow_position>
 4a8:	0e 94 d1 01 	call	0x3a2	; 0x3a2 <geraFlecha>
 4ac:	80 93 41 01 	sts	0x0141, r24	; 0x800141 <flecha_posicao>
 4b0:	0e 94 cd 02 	call	0x59a	; 0x59a <nokia_lcd_clear>
 4b4:	90 e0       	ldi	r25, 0x00	; 0
 4b6:	80 e0       	ldi	r24, 0x00	; 0
 4b8:	0e 94 94 01 	call	0x328	; 0x328 <inicia_rua>
 4bc:	8c e0       	ldi	r24, 0x0C	; 12
 4be:	90 e0       	ldi	r25, 0x00	; 0
 4c0:	0e 94 94 01 	call	0x328	; 0x328 <inicia_rua>
 4c4:	88 e1       	ldi	r24, 0x18	; 24
 4c6:	90 e0       	ldi	r25, 0x00	; 0
 4c8:	0e 94 94 01 	call	0x328	; 0x328 <inicia_rua>
 4cc:	84 e2       	ldi	r24, 0x24	; 36
 4ce:	90 e0       	ldi	r25, 0x00	; 0
 4d0:	0c 94 94 01 	jmp	0x328	; 0x328 <inicia_rua>
 4d4:	08 95       	ret

000004d6 <write>:
 4d6:	29 98       	cbi	0x05, 1	; 5
 4d8:	66 23       	and	r22, r22
 4da:	a9 f0       	breq	.+42     	; 0x506 <write+0x30>
 4dc:	2b 9a       	sbi	0x05, 3	; 5
 4de:	27 e0       	ldi	r18, 0x07	; 7
 4e0:	30 e0       	ldi	r19, 0x00	; 0
 4e2:	90 e0       	ldi	r25, 0x00	; 0
 4e4:	ac 01       	movw	r20, r24
 4e6:	02 2e       	mov	r0, r18
 4e8:	02 c0       	rjmp	.+4      	; 0x4ee <write+0x18>
 4ea:	55 95       	asr	r21
 4ec:	47 95       	ror	r20
 4ee:	0a 94       	dec	r0
 4f0:	e2 f7       	brpl	.-8      	; 0x4ea <write+0x14>
 4f2:	40 ff       	sbrs	r20, 0
 4f4:	0a c0       	rjmp	.+20     	; 0x50a <write+0x34>
 4f6:	2c 9a       	sbi	0x05, 4	; 5
 4f8:	2d 9a       	sbi	0x05, 5	; 5
 4fa:	2d 98       	cbi	0x05, 5	; 5
 4fc:	21 50       	subi	r18, 0x01	; 1
 4fe:	31 09       	sbc	r19, r1
 500:	88 f7       	brcc	.-30     	; 0x4e4 <write+0xe>
 502:	29 9a       	sbi	0x05, 1	; 5
 504:	08 95       	ret
 506:	2b 98       	cbi	0x05, 3	; 5
 508:	ea cf       	rjmp	.-44     	; 0x4de <write+0x8>
 50a:	2c 98       	cbi	0x05, 4	; 5
 50c:	f5 cf       	rjmp	.-22     	; 0x4f8 <write+0x22>

0000050e <write_cmd>:
 50e:	60 e0       	ldi	r22, 0x00	; 0
 510:	0c 94 6b 02 	jmp	0x4d6	; 0x4d6 <write>

00000514 <nokia_lcd_init>:
 514:	cf 93       	push	r28
 516:	df 93       	push	r29
 518:	21 9a       	sbi	0x04, 1	; 4
 51a:	22 9a       	sbi	0x04, 2	; 4
 51c:	23 9a       	sbi	0x04, 3	; 4
 51e:	24 9a       	sbi	0x04, 4	; 4
 520:	25 9a       	sbi	0x04, 5	; 4
 522:	2a 9a       	sbi	0x05, 2	; 5
 524:	29 9a       	sbi	0x05, 1	; 5
 526:	8f e3       	ldi	r24, 0x3F	; 63
 528:	9c e9       	ldi	r25, 0x9C	; 156
 52a:	01 97       	sbiw	r24, 0x01	; 1
 52c:	f1 f7       	brne	.-4      	; 0x52a <nokia_lcd_init+0x16>
 52e:	00 c0       	rjmp	.+0      	; 0x530 <nokia_lcd_init+0x1c>
 530:	00 00       	nop
 532:	2a 98       	cbi	0x05, 2	; 5
 534:	9f ef       	ldi	r25, 0xFF	; 255
 536:	2a e6       	ldi	r18, 0x6A	; 106
 538:	83 e0       	ldi	r24, 0x03	; 3
 53a:	91 50       	subi	r25, 0x01	; 1
 53c:	20 40       	sbci	r18, 0x00	; 0
 53e:	80 40       	sbci	r24, 0x00	; 0
 540:	e1 f7       	brne	.-8      	; 0x53a <nokia_lcd_init+0x26>
 542:	00 c0       	rjmp	.+0      	; 0x544 <nokia_lcd_init+0x30>
 544:	00 00       	nop
 546:	2a 9a       	sbi	0x05, 2	; 5
 548:	29 98       	cbi	0x05, 1	; 5
 54a:	81 e2       	ldi	r24, 0x21	; 33
 54c:	0e 94 87 02 	call	0x50e	; 0x50e <write_cmd>
 550:	83 e1       	ldi	r24, 0x13	; 19
 552:	0e 94 87 02 	call	0x50e	; 0x50e <write_cmd>
 556:	86 e0       	ldi	r24, 0x06	; 6
 558:	0e 94 87 02 	call	0x50e	; 0x50e <write_cmd>
 55c:	82 ec       	ldi	r24, 0xC2	; 194
 55e:	0e 94 87 02 	call	0x50e	; 0x50e <write_cmd>
 562:	80 e2       	ldi	r24, 0x20	; 32
 564:	0e 94 87 02 	call	0x50e	; 0x50e <write_cmd>
 568:	89 e0       	ldi	r24, 0x09	; 9
 56a:	0e 94 87 02 	call	0x50e	; 0x50e <write_cmd>
 56e:	80 e8       	ldi	r24, 0x80	; 128
 570:	0e 94 87 02 	call	0x50e	; 0x50e <write_cmd>
 574:	80 e4       	ldi	r24, 0x40	; 64
 576:	0e 94 87 02 	call	0x50e	; 0x50e <write_cmd>
 57a:	c8 ef       	ldi	r28, 0xF8	; 248
 57c:	d1 e0       	ldi	r29, 0x01	; 1
 57e:	61 e0       	ldi	r22, 0x01	; 1
 580:	80 e0       	ldi	r24, 0x00	; 0
 582:	0e 94 6b 02 	call	0x4d6	; 0x4d6 <write>
 586:	21 97       	sbiw	r28, 0x01	; 1
 588:	d1 f7       	brne	.-12     	; 0x57e <nokia_lcd_init+0x6a>
 58a:	88 e0       	ldi	r24, 0x08	; 8
 58c:	0e 94 87 02 	call	0x50e	; 0x50e <write_cmd>
 590:	8c e0       	ldi	r24, 0x0C	; 12
 592:	df 91       	pop	r29
 594:	cf 91       	pop	r28
 596:	0c 94 87 02 	jmp	0x50e	; 0x50e <write_cmd>

0000059a <nokia_lcd_clear>:
 59a:	80 e8       	ldi	r24, 0x80	; 128
 59c:	0e 94 87 02 	call	0x50e	; 0x50e <write_cmd>
 5a0:	80 e4       	ldi	r24, 0x40	; 64
 5a2:	0e 94 87 02 	call	0x50e	; 0x50e <write_cmd>
 5a6:	10 92 82 03 	sts	0x0382, r1	; 0x800382 <nokia_lcd+0x1f8>
 5aa:	10 92 83 03 	sts	0x0383, r1	; 0x800383 <nokia_lcd+0x1f9>
 5ae:	ea e8       	ldi	r30, 0x8A	; 138
 5b0:	f1 e0       	ldi	r31, 0x01	; 1
 5b2:	88 ef       	ldi	r24, 0xF8	; 248
 5b4:	91 e0       	ldi	r25, 0x01	; 1
 5b6:	df 01       	movw	r26, r30
 5b8:	9c 01       	movw	r18, r24
 5ba:	1d 92       	st	X+, r1
 5bc:	21 50       	subi	r18, 0x01	; 1
 5be:	30 40       	sbci	r19, 0x00	; 0
 5c0:	e1 f7       	brne	.-8      	; 0x5ba <nokia_lcd_clear+0x20>
 5c2:	08 95       	ret

000005c4 <nokia_lcd_power>:
 5c4:	81 11       	cpse	r24, r1
 5c6:	03 c0       	rjmp	.+6      	; 0x5ce <nokia_lcd_power+0xa>
 5c8:	84 e2       	ldi	r24, 0x24	; 36
 5ca:	0c 94 87 02 	jmp	0x50e	; 0x50e <write_cmd>
 5ce:	80 e2       	ldi	r24, 0x20	; 32
 5d0:	fc cf       	rjmp	.-8      	; 0x5ca <nokia_lcd_power+0x6>

000005d2 <nokia_lcd_set_pixel>:
 5d2:	96 2f       	mov	r25, r22
 5d4:	96 95       	lsr	r25
 5d6:	96 95       	lsr	r25
 5d8:	96 95       	lsr	r25
 5da:	e8 2f       	mov	r30, r24
 5dc:	f0 e0       	ldi	r31, 0x00	; 0
 5de:	84 e5       	ldi	r24, 0x54	; 84
 5e0:	98 9f       	mul	r25, r24
 5e2:	e0 0d       	add	r30, r0
 5e4:	f1 1d       	adc	r31, r1
 5e6:	11 24       	eor	r1, r1
 5e8:	e6 57       	subi	r30, 0x76	; 118
 5ea:	fe 4f       	sbci	r31, 0xFE	; 254
 5ec:	20 81       	ld	r18, Z
 5ee:	67 70       	andi	r22, 0x07	; 7
 5f0:	81 e0       	ldi	r24, 0x01	; 1
 5f2:	90 e0       	ldi	r25, 0x00	; 0
 5f4:	01 c0       	rjmp	.+2      	; 0x5f8 <nokia_lcd_set_pixel+0x26>
 5f6:	88 0f       	add	r24, r24
 5f8:	6a 95       	dec	r22
 5fa:	ea f7       	brpl	.-6      	; 0x5f6 <nokia_lcd_set_pixel+0x24>
 5fc:	44 23       	and	r20, r20
 5fe:	19 f0       	breq	.+6      	; 0x606 <nokia_lcd_set_pixel+0x34>
 600:	28 2b       	or	r18, r24
 602:	20 83       	st	Z, r18
 604:	08 95       	ret
 606:	80 95       	com	r24
 608:	28 23       	and	r18, r24
 60a:	fb cf       	rjmp	.-10     	; 0x602 <nokia_lcd_set_pixel+0x30>

0000060c <nokia_lcd_write_char>:
 60c:	8f 92       	push	r8
 60e:	9f 92       	push	r9
 610:	af 92       	push	r10
 612:	bf 92       	push	r11
 614:	df 92       	push	r13
 616:	ef 92       	push	r14
 618:	ff 92       	push	r15
 61a:	0f 93       	push	r16
 61c:	1f 93       	push	r17
 61e:	cf 93       	push	r28
 620:	df 93       	push	r29
 622:	00 d0       	rcall	.+0      	; 0x624 <nokia_lcd_write_char+0x18>
 624:	00 d0       	rcall	.+0      	; 0x626 <nokia_lcd_write_char+0x1a>
 626:	0f 92       	push	r0
 628:	cd b7       	in	r28, 0x3d	; 61
 62a:	de b7       	in	r29, 0x3e	; 62
 62c:	e8 2f       	mov	r30, r24
 62e:	f6 2e       	mov	r15, r22
 630:	80 32       	cpi	r24, 0x20	; 32
 632:	0c f4       	brge	.+2      	; 0x636 <nokia_lcd_write_char+0x2a>
 634:	4d c0       	rjmp	.+154    	; 0x6d0 <nokia_lcd_write_char+0xc4>
 636:	e0 52       	subi	r30, 0x20	; 32
 638:	85 e0       	ldi	r24, 0x05	; 5
 63a:	e8 02       	muls	r30, r24
 63c:	b0 01       	movw	r22, r0
 63e:	11 24       	eor	r1, r1
 640:	68 59       	subi	r22, 0x98	; 152
 642:	7f 4f       	sbci	r23, 0xFF	; 255
 644:	45 e0       	ldi	r20, 0x05	; 5
 646:	50 e0       	ldi	r21, 0x00	; 0
 648:	ce 01       	movw	r24, r28
 64a:	01 96       	adiw	r24, 0x01	; 1
 64c:	0e 94 66 05 	call	0xacc	; 0xacc <memcpy_P>
 650:	8e 01       	movw	r16, r28
 652:	0f 5f       	subi	r16, 0xFF	; 255
 654:	1f 4f       	sbci	r17, 0xFF	; 255
 656:	95 e0       	ldi	r25, 0x05	; 5
 658:	f9 9e       	mul	r15, r25
 65a:	50 01       	movw	r10, r0
 65c:	11 24       	eor	r1, r1
 65e:	87 e0       	ldi	r24, 0x07	; 7
 660:	f8 9e       	mul	r15, r24
 662:	40 01       	movw	r8, r0
 664:	11 24       	eor	r1, r1
 666:	e1 2c       	mov	r14, r1
 668:	ea 14       	cp	r14, r10
 66a:	1b 04       	cpc	r1, r11
 66c:	0c f4       	brge	.+2      	; 0x670 <nokia_lcd_write_char+0x64>
 66e:	63 c0       	rjmp	.+198    	; 0x736 <nokia_lcd_write_char+0x12a>
 670:	80 91 82 03 	lds	r24, 0x0382	; 0x800382 <nokia_lcd+0x1f8>
 674:	8f 5f       	subi	r24, 0xFF	; 255
 676:	9f 2d       	mov	r25, r15
 678:	99 0f       	add	r25, r25
 67a:	99 0f       	add	r25, r25
 67c:	9f 0d       	add	r25, r15
 67e:	89 0f       	add	r24, r25
 680:	80 93 82 03 	sts	0x0382, r24	; 0x800382 <nokia_lcd+0x1f8>
 684:	84 35       	cpi	r24, 0x54	; 84
 686:	58 f0       	brcs	.+22     	; 0x69e <nokia_lcd_write_char+0x92>
 688:	80 91 83 03 	lds	r24, 0x0383	; 0x800383 <nokia_lcd+0x1f9>
 68c:	10 92 82 03 	sts	0x0382, r1	; 0x800382 <nokia_lcd+0x1f8>
 690:	8f 5f       	subi	r24, 0xFF	; 255
 692:	97 e0       	ldi	r25, 0x07	; 7
 694:	f9 9e       	mul	r15, r25
 696:	80 0d       	add	r24, r0
 698:	11 24       	eor	r1, r1
 69a:	80 93 83 03 	sts	0x0383, r24	; 0x800383 <nokia_lcd+0x1f9>
 69e:	80 91 83 03 	lds	r24, 0x0383	; 0x800383 <nokia_lcd+0x1f9>
 6a2:	80 33       	cpi	r24, 0x30	; 48
 6a4:	20 f0       	brcs	.+8      	; 0x6ae <nokia_lcd_write_char+0xa2>
 6a6:	10 92 82 03 	sts	0x0382, r1	; 0x800382 <nokia_lcd+0x1f8>
 6aa:	10 92 83 03 	sts	0x0383, r1	; 0x800383 <nokia_lcd+0x1f9>
 6ae:	0f 90       	pop	r0
 6b0:	0f 90       	pop	r0
 6b2:	0f 90       	pop	r0
 6b4:	0f 90       	pop	r0
 6b6:	0f 90       	pop	r0
 6b8:	df 91       	pop	r29
 6ba:	cf 91       	pop	r28
 6bc:	1f 91       	pop	r17
 6be:	0f 91       	pop	r16
 6c0:	ff 90       	pop	r15
 6c2:	ef 90       	pop	r14
 6c4:	df 90       	pop	r13
 6c6:	bf 90       	pop	r11
 6c8:	af 90       	pop	r10
 6ca:	9f 90       	pop	r9
 6cc:	8f 90       	pop	r8
 6ce:	08 95       	ret
 6d0:	ee 0f       	add	r30, r30
 6d2:	ff 0b       	sbc	r31, r31
 6d4:	e6 5b       	subi	r30, 0xB6	; 182
 6d6:	fe 4f       	sbci	r31, 0xFE	; 254
 6d8:	00 81       	ld	r16, Z
 6da:	11 81       	ldd	r17, Z+1	; 0x01
 6dc:	01 15       	cp	r16, r1
 6de:	11 05       	cpc	r17, r1
 6e0:	09 f0       	breq	.+2      	; 0x6e4 <nokia_lcd_write_char+0xd8>
 6e2:	b9 cf       	rjmp	.-142    	; 0x656 <nokia_lcd_write_char+0x4a>
 6e4:	45 e0       	ldi	r20, 0x05	; 5
 6e6:	50 e0       	ldi	r21, 0x00	; 0
 6e8:	68 e6       	ldi	r22, 0x68	; 104
 6ea:	70 e0       	ldi	r23, 0x00	; 0
 6ec:	ad cf       	rjmp	.-166    	; 0x648 <nokia_lcd_write_char+0x3c>
 6ee:	ed 0d       	add	r30, r13
 6f0:	5e 0d       	add	r21, r14
 6f2:	8e 2d       	mov	r24, r14
 6f4:	6f 2d       	mov	r22, r15
 6f6:	0e 94 ba 04 	call	0x974	; 0x974 <__udivmodqi4>
 6fa:	d8 01       	movw	r26, r16
 6fc:	a8 0f       	add	r26, r24
 6fe:	b1 1d       	adc	r27, r1
 700:	2c 91       	ld	r18, X
 702:	30 e0       	ldi	r19, 0x00	; 0
 704:	8d 2d       	mov	r24, r13
 706:	0e 94 ba 04 	call	0x974	; 0x974 <__udivmodqi4>
 70a:	02 c0       	rjmp	.+4      	; 0x710 <nokia_lcd_write_char+0x104>
 70c:	35 95       	asr	r19
 70e:	27 95       	ror	r18
 710:	8a 95       	dec	r24
 712:	e2 f7       	brpl	.-8      	; 0x70c <nokia_lcd_write_char+0x100>
 714:	41 e0       	ldi	r20, 0x01	; 1
 716:	20 ff       	sbrs	r18, 0
 718:	40 e0       	ldi	r20, 0x00	; 0
 71a:	6e 2f       	mov	r22, r30
 71c:	85 2f       	mov	r24, r21
 71e:	0e 94 e9 02 	call	0x5d2	; 0x5d2 <nokia_lcd_set_pixel>
 722:	d3 94       	inc	r13
 724:	e0 91 83 03 	lds	r30, 0x0383	; 0x800383 <nokia_lcd+0x1f9>
 728:	50 91 82 03 	lds	r21, 0x0382	; 0x800382 <nokia_lcd+0x1f8>
 72c:	d8 14       	cp	r13, r8
 72e:	19 04       	cpc	r1, r9
 730:	f4 f2       	brlt	.-68     	; 0x6ee <nokia_lcd_write_char+0xe2>
 732:	e3 94       	inc	r14
 734:	99 cf       	rjmp	.-206    	; 0x668 <nokia_lcd_write_char+0x5c>
 736:	d1 2c       	mov	r13, r1
 738:	f5 cf       	rjmp	.-22     	; 0x724 <nokia_lcd_write_char+0x118>

0000073a <nokia_lcd_custom>:
 73a:	e8 2f       	mov	r30, r24
 73c:	80 32       	cpi	r24, 0x20	; 32
 73e:	34 f4       	brge	.+12     	; 0x74c <nokia_lcd_custom+0x12>
 740:	ee 0f       	add	r30, r30
 742:	ff 0b       	sbc	r31, r31
 744:	e6 5b       	subi	r30, 0xB6	; 182
 746:	fe 4f       	sbci	r31, 0xFE	; 254
 748:	71 83       	std	Z+1, r23	; 0x01
 74a:	60 83       	st	Z, r22
 74c:	08 95       	ret

0000074e <nokia_lcd_write_string>:
 74e:	1f 93       	push	r17
 750:	cf 93       	push	r28
 752:	df 93       	push	r29
 754:	16 2f       	mov	r17, r22
 756:	ec 01       	movw	r28, r24
 758:	89 91       	ld	r24, Y+
 75a:	81 11       	cpse	r24, r1
 75c:	04 c0       	rjmp	.+8      	; 0x766 <nokia_lcd_write_string+0x18>
 75e:	df 91       	pop	r29
 760:	cf 91       	pop	r28
 762:	1f 91       	pop	r17
 764:	08 95       	ret
 766:	61 2f       	mov	r22, r17
 768:	0e 94 06 03 	call	0x60c	; 0x60c <nokia_lcd_write_char>
 76c:	f5 cf       	rjmp	.-22     	; 0x758 <nokia_lcd_write_string+0xa>

0000076e <nokia_lcd_set_cursor>:
 76e:	80 93 82 03 	sts	0x0382, r24	; 0x800382 <nokia_lcd+0x1f8>
 772:	60 93 83 03 	sts	0x0383, r22	; 0x800383 <nokia_lcd+0x1f9>
 776:	08 95       	ret

00000778 <nokia_lcd_render>:
 778:	cf 93       	push	r28
 77a:	df 93       	push	r29
 77c:	80 e8       	ldi	r24, 0x80	; 128
 77e:	0e 94 87 02 	call	0x50e	; 0x50e <write_cmd>
 782:	80 e4       	ldi	r24, 0x40	; 64
 784:	0e 94 87 02 	call	0x50e	; 0x50e <write_cmd>
 788:	ca e8       	ldi	r28, 0x8A	; 138
 78a:	d1 e0       	ldi	r29, 0x01	; 1
 78c:	61 e0       	ldi	r22, 0x01	; 1
 78e:	89 91       	ld	r24, Y+
 790:	0e 94 6b 02 	call	0x4d6	; 0x4d6 <write>
 794:	83 e0       	ldi	r24, 0x03	; 3
 796:	c2 38       	cpi	r28, 0x82	; 130
 798:	d8 07       	cpc	r29, r24
 79a:	c1 f7       	brne	.-16     	; 0x78c <nokia_lcd_render+0x14>
 79c:	df 91       	pop	r29
 79e:	cf 91       	pop	r28
 7a0:	08 95       	ret

000007a2 <main>:
 7a2:	57 98       	cbi	0x0a, 7	; 10
 7a4:	56 98       	cbi	0x0a, 6	; 10
 7a6:	20 98       	cbi	0x04, 0	; 4
 7a8:	21 9a       	sbi	0x04, 1	; 4
 7aa:	22 9a       	sbi	0x04, 2	; 4
 7ac:	0e 94 8a 02 	call	0x514	; 0x514 <nokia_lcd_init>
 7b0:	0e 94 5d 01 	call	0x2ba	; 0x2ba <tela_inicial>
 7b4:	f8 94       	cli
 7b6:	28 98       	cbi	0x05, 0	; 5
 7b8:	5f 98       	cbi	0x0b, 7	; 11
 7ba:	5e 98       	cbi	0x0b, 6	; 11
 7bc:	83 e0       	ldi	r24, 0x03	; 3
 7be:	80 93 69 00 	sts	0x0069, r24	; 0x800069 <__TEXT_REGION_LENGTH__+0x7e0069>
 7c2:	80 91 69 00 	lds	r24, 0x0069	; 0x800069 <__TEXT_REGION_LENGTH__+0x7e0069>
 7c6:	88 60       	ori	r24, 0x08	; 8
 7c8:	80 93 69 00 	sts	0x0069, r24	; 0x800069 <__TEXT_REGION_LENGTH__+0x7e0069>
 7cc:	8d b3       	in	r24, 0x1d	; 29
 7ce:	83 60       	ori	r24, 0x03	; 3
 7d0:	8d bb       	out	0x1d, r24	; 29
 7d2:	78 94       	sei
 7d4:	62 e0       	ldi	r22, 0x02	; 2
 7d6:	71 e0       	ldi	r23, 0x01	; 1
 7d8:	83 e0       	ldi	r24, 0x03	; 3
 7da:	0e 94 9d 03 	call	0x73a	; 0x73a <nokia_lcd_custom>
 7de:	90 e0       	ldi	r25, 0x00	; 0
 7e0:	80 e0       	ldi	r24, 0x00	; 0
 7e2:	0e 94 94 01 	call	0x328	; 0x328 <inicia_rua>
 7e6:	8c e0       	ldi	r24, 0x0C	; 12
 7e8:	90 e0       	ldi	r25, 0x00	; 0
 7ea:	0e 94 94 01 	call	0x328	; 0x328 <inicia_rua>
 7ee:	88 e1       	ldi	r24, 0x18	; 24
 7f0:	90 e0       	ldi	r25, 0x00	; 0
 7f2:	0e 94 94 01 	call	0x328	; 0x328 <inicia_rua>
 7f6:	84 e2       	ldi	r24, 0x24	; 36
 7f8:	90 e0       	ldi	r25, 0x00	; 0
 7fa:	0e 94 94 01 	call	0x328	; 0x328 <inicia_rua>
 7fe:	67 e0       	ldi	r22, 0x07	; 7
 800:	71 e0       	ldi	r23, 0x01	; 1
 802:	82 e0       	ldi	r24, 0x02	; 2
 804:	0e 94 9d 03 	call	0x73a	; 0x73a <nokia_lcd_custom>
 808:	65 e2       	ldi	r22, 0x25	; 37
 80a:	82 e2       	ldi	r24, 0x22	; 34
 80c:	0e 94 b7 03 	call	0x76e	; 0x76e <nokia_lcd_set_cursor>
 810:	62 e0       	ldi	r22, 0x02	; 2
 812:	8e e3       	ldi	r24, 0x3E	; 62
 814:	91 e0       	ldi	r25, 0x01	; 1
 816:	0e 94 a7 03 	call	0x74e	; 0x74e <nokia_lcd_write_string>
 81a:	0e 94 bc 03 	call	0x778	; 0x778 <nokia_lcd_render>
 81e:	6c e0       	ldi	r22, 0x0C	; 12
 820:	71 e0       	ldi	r23, 0x01	; 1
 822:	85 e0       	ldi	r24, 0x05	; 5
 824:	0e 94 9d 03 	call	0x73a	; 0x73a <nokia_lcd_custom>
 828:	65 e4       	ldi	r22, 0x45	; 69
 82a:	71 e0       	ldi	r23, 0x01	; 1
 82c:	86 e0       	ldi	r24, 0x06	; 6
 82e:	0e 94 9d 03 	call	0x73a	; 0x73a <nokia_lcd_custom>
 832:	87 ea       	ldi	r24, 0xA7	; 167
 834:	80 93 b3 00 	sts	0x00B3, r24	; 0x8000b3 <__TEXT_REGION_LENGTH__+0x7e00b3>
 838:	80 91 b0 00 	lds	r24, 0x00B0	; 0x8000b0 <__TEXT_REGION_LENGTH__+0x7e00b0>
 83c:	82 60       	ori	r24, 0x02	; 2
 83e:	80 93 b0 00 	sts	0x00B0, r24	; 0x8000b0 <__TEXT_REGION_LENGTH__+0x7e00b0>
 842:	80 91 b1 00 	lds	r24, 0x00B1	; 0x8000b1 <__TEXT_REGION_LENGTH__+0x7e00b1>
 846:	87 60       	ori	r24, 0x07	; 7
 848:	80 93 b1 00 	sts	0x00B1, r24	; 0x8000b1 <__TEXT_REGION_LENGTH__+0x7e00b1>
 84c:	80 91 70 00 	lds	r24, 0x0070	; 0x800070 <__TEXT_REGION_LENGTH__+0x7e0070>
 850:	82 60       	ori	r24, 0x02	; 2
 852:	80 93 70 00 	sts	0x0070, r24	; 0x800070 <__TEXT_REGION_LENGTH__+0x7e0070>
 856:	0e 94 2c 02 	call	0x458	; 0x458 <morreu>
 85a:	0e 94 76 01 	call	0x2ec	; 0x2ec <atualiza_flecha>
 85e:	0e 94 bc 03 	call	0x778	; 0x778 <nokia_lcd_render>
 862:	0e 94 2c 02 	call	0x458	; 0x458 <morreu>
 866:	4f 9b       	sbis	0x09, 7	; 9
 868:	33 c0       	rjmp	.+102    	; 0x8d0 <main+0x12e>
 86a:	80 91 00 01 	lds	r24, 0x0100	; 0x800100 <x>
 86e:	90 91 01 01 	lds	r25, 0x0101	; 0x800101 <x+0x1>
 872:	05 97       	sbiw	r24, 0x05	; 5
 874:	cc 97       	sbiw	r24, 0x3c	; 60
 876:	60 f5       	brcc	.+88     	; 0x8d0 <main+0x12e>
 878:	0e 94 2c 02 	call	0x458	; 0x458 <morreu>
 87c:	65 e2       	ldi	r22, 0x25	; 37
 87e:	80 91 00 01 	lds	r24, 0x0100	; 0x800100 <x>
 882:	0e 94 b7 03 	call	0x76e	; 0x76e <nokia_lcd_set_cursor>
 886:	62 e0       	ldi	r22, 0x02	; 2
 888:	8f e2       	ldi	r24, 0x2F	; 47
 88a:	91 e0       	ldi	r25, 0x01	; 1
 88c:	0e 94 a7 03 	call	0x74e	; 0x74e <nokia_lcd_write_string>
 890:	0e 94 bc 03 	call	0x778	; 0x778 <nokia_lcd_render>
 894:	80 91 00 01 	lds	r24, 0x0100	; 0x800100 <x>
 898:	90 91 01 01 	lds	r25, 0x0101	; 0x800101 <x+0x1>
 89c:	0f 97       	sbiw	r24, 0x0f	; 15
 89e:	90 93 01 01 	sts	0x0101, r25	; 0x800101 <x+0x1>
 8a2:	80 93 00 01 	sts	0x0100, r24	; 0x800100 <x>
 8a6:	65 e2       	ldi	r22, 0x25	; 37
 8a8:	0e 94 b7 03 	call	0x76e	; 0x76e <nokia_lcd_set_cursor>
 8ac:	62 e0       	ldi	r22, 0x02	; 2
 8ae:	8e e3       	ldi	r24, 0x3E	; 62
 8b0:	91 e0       	ldi	r25, 0x01	; 1
 8b2:	0e 94 a7 03 	call	0x74e	; 0x74e <nokia_lcd_write_string>
 8b6:	0e 94 bc 03 	call	0x778	; 0x778 <nokia_lcd_render>
 8ba:	0e 94 2c 02 	call	0x458	; 0x458 <morreu>
 8be:	2f ef       	ldi	r18, 0xFF	; 255
 8c0:	80 e7       	ldi	r24, 0x70	; 112
 8c2:	92 e0       	ldi	r25, 0x02	; 2
 8c4:	21 50       	subi	r18, 0x01	; 1
 8c6:	80 40       	sbci	r24, 0x00	; 0
 8c8:	90 40       	sbci	r25, 0x00	; 0
 8ca:	e1 f7       	brne	.-8      	; 0x8c4 <main+0x122>
 8cc:	00 c0       	rjmp	.+0      	; 0x8ce <main+0x12c>
 8ce:	00 00       	nop
 8d0:	0e 94 2c 02 	call	0x458	; 0x458 <morreu>
 8d4:	0e 94 76 01 	call	0x2ec	; 0x2ec <atualiza_flecha>
 8d8:	0e 94 bc 03 	call	0x778	; 0x778 <nokia_lcd_render>
 8dc:	0e 94 2c 02 	call	0x458	; 0x458 <morreu>
 8e0:	4e 9b       	sbis	0x09, 6	; 9
 8e2:	33 c0       	rjmp	.+102    	; 0x94a <__stack+0x4b>
 8e4:	80 91 00 01 	lds	r24, 0x0100	; 0x800100 <x>
 8e8:	90 91 01 01 	lds	r25, 0x0101	; 0x800101 <x+0x1>
 8ec:	04 97       	sbiw	r24, 0x04	; 4
 8ee:	cc 97       	sbiw	r24, 0x3c	; 60
 8f0:	60 f5       	brcc	.+88     	; 0x94a <__stack+0x4b>
 8f2:	0e 94 2c 02 	call	0x458	; 0x458 <morreu>
 8f6:	65 e2       	ldi	r22, 0x25	; 37
 8f8:	80 91 00 01 	lds	r24, 0x0100	; 0x800100 <x>
 8fc:	0e 94 b7 03 	call	0x76e	; 0x76e <nokia_lcd_set_cursor>
 900:	62 e0       	ldi	r22, 0x02	; 2
 902:	8f e2       	ldi	r24, 0x2F	; 47
 904:	91 e0       	ldi	r25, 0x01	; 1
 906:	0e 94 a7 03 	call	0x74e	; 0x74e <nokia_lcd_write_string>
 90a:	0e 94 bc 03 	call	0x778	; 0x778 <nokia_lcd_render>
 90e:	80 91 00 01 	lds	r24, 0x0100	; 0x800100 <x>
 912:	90 91 01 01 	lds	r25, 0x0101	; 0x800101 <x+0x1>
 916:	0f 96       	adiw	r24, 0x0f	; 15
 918:	90 93 01 01 	sts	0x0101, r25	; 0x800101 <x+0x1>
 91c:	80 93 00 01 	sts	0x0100, r24	; 0x800100 <x>
 920:	65 e2       	ldi	r22, 0x25	; 37
 922:	0e 94 b7 03 	call	0x76e	; 0x76e <nokia_lcd_set_cursor>
 926:	62 e0       	ldi	r22, 0x02	; 2
 928:	8e e3       	ldi	r24, 0x3E	; 62
 92a:	91 e0       	ldi	r25, 0x01	; 1
 92c:	0e 94 a7 03 	call	0x74e	; 0x74e <nokia_lcd_write_string>
 930:	0e 94 bc 03 	call	0x778	; 0x778 <nokia_lcd_render>
 934:	0e 94 2c 02 	call	0x458	; 0x458 <morreu>
 938:	2f ef       	ldi	r18, 0xFF	; 255
 93a:	80 e7       	ldi	r24, 0x70	; 112
 93c:	92 e0       	ldi	r25, 0x02	; 2
 93e:	21 50       	subi	r18, 0x01	; 1
 940:	80 40       	sbci	r24, 0x00	; 0
 942:	90 40       	sbci	r25, 0x00	; 0
 944:	e1 f7       	brne	.-8      	; 0x93e <__stack+0x3f>
 946:	00 c0       	rjmp	.+0      	; 0x948 <__stack+0x49>
 948:	00 00       	nop
 94a:	0e 94 2c 02 	call	0x458	; 0x458 <morreu>
 94e:	0e 94 76 01 	call	0x2ec	; 0x2ec <atualiza_flecha>
 952:	0e 94 bc 03 	call	0x778	; 0x778 <nokia_lcd_render>
 956:	65 e2       	ldi	r22, 0x25	; 37
 958:	80 91 00 01 	lds	r24, 0x0100	; 0x800100 <x>
 95c:	0e 94 b7 03 	call	0x76e	; 0x76e <nokia_lcd_set_cursor>
 960:	62 e0       	ldi	r22, 0x02	; 2
 962:	8e e3       	ldi	r24, 0x3E	; 62
 964:	91 e0       	ldi	r25, 0x01	; 1
 966:	0e 94 a7 03 	call	0x74e	; 0x74e <nokia_lcd_write_string>
 96a:	0e 94 bc 03 	call	0x778	; 0x778 <nokia_lcd_render>
 96e:	0e 94 2c 02 	call	0x458	; 0x458 <morreu>
 972:	71 cf       	rjmp	.-286    	; 0x856 <main+0xb4>

00000974 <__udivmodqi4>:
 974:	99 1b       	sub	r25, r25
 976:	79 e0       	ldi	r23, 0x09	; 9
 978:	04 c0       	rjmp	.+8      	; 0x982 <__udivmodqi4_ep>

0000097a <__udivmodqi4_loop>:
 97a:	99 1f       	adc	r25, r25
 97c:	96 17       	cp	r25, r22
 97e:	08 f0       	brcs	.+2      	; 0x982 <__udivmodqi4_ep>
 980:	96 1b       	sub	r25, r22

00000982 <__udivmodqi4_ep>:
 982:	88 1f       	adc	r24, r24
 984:	7a 95       	dec	r23
 986:	c9 f7       	brne	.-14     	; 0x97a <__udivmodqi4_loop>
 988:	80 95       	com	r24
 98a:	08 95       	ret

0000098c <__divmodhi4>:
 98c:	97 fb       	bst	r25, 7
 98e:	07 2e       	mov	r0, r23
 990:	16 f4       	brtc	.+4      	; 0x996 <__divmodhi4+0xa>
 992:	00 94       	com	r0
 994:	07 d0       	rcall	.+14     	; 0x9a4 <__divmodhi4_neg1>
 996:	77 fd       	sbrc	r23, 7
 998:	09 d0       	rcall	.+18     	; 0x9ac <__divmodhi4_neg2>
 99a:	0e 94 da 04 	call	0x9b4	; 0x9b4 <__udivmodhi4>
 99e:	07 fc       	sbrc	r0, 7
 9a0:	05 d0       	rcall	.+10     	; 0x9ac <__divmodhi4_neg2>
 9a2:	3e f4       	brtc	.+14     	; 0x9b2 <__divmodhi4_exit>

000009a4 <__divmodhi4_neg1>:
 9a4:	90 95       	com	r25
 9a6:	81 95       	neg	r24
 9a8:	9f 4f       	sbci	r25, 0xFF	; 255
 9aa:	08 95       	ret

000009ac <__divmodhi4_neg2>:
 9ac:	70 95       	com	r23
 9ae:	61 95       	neg	r22
 9b0:	7f 4f       	sbci	r23, 0xFF	; 255

000009b2 <__divmodhi4_exit>:
 9b2:	08 95       	ret

000009b4 <__udivmodhi4>:
 9b4:	aa 1b       	sub	r26, r26
 9b6:	bb 1b       	sub	r27, r27
 9b8:	51 e1       	ldi	r21, 0x11	; 17
 9ba:	07 c0       	rjmp	.+14     	; 0x9ca <__udivmodhi4_ep>

000009bc <__udivmodhi4_loop>:
 9bc:	aa 1f       	adc	r26, r26
 9be:	bb 1f       	adc	r27, r27
 9c0:	a6 17       	cp	r26, r22
 9c2:	b7 07       	cpc	r27, r23
 9c4:	10 f0       	brcs	.+4      	; 0x9ca <__udivmodhi4_ep>
 9c6:	a6 1b       	sub	r26, r22
 9c8:	b7 0b       	sbc	r27, r23

000009ca <__udivmodhi4_ep>:
 9ca:	88 1f       	adc	r24, r24
 9cc:	99 1f       	adc	r25, r25
 9ce:	5a 95       	dec	r21
 9d0:	a9 f7       	brne	.-22     	; 0x9bc <__udivmodhi4_loop>
 9d2:	80 95       	com	r24
 9d4:	90 95       	com	r25
 9d6:	bc 01       	movw	r22, r24
 9d8:	cd 01       	movw	r24, r26
 9da:	08 95       	ret

000009dc <do_rand>:
 9dc:	cf 92       	push	r12
 9de:	df 92       	push	r13
 9e0:	ef 92       	push	r14
 9e2:	ff 92       	push	r15
 9e4:	cf 93       	push	r28
 9e6:	df 93       	push	r29
 9e8:	cd b7       	in	r28, 0x3d	; 61
 9ea:	de b7       	in	r29, 0x3e	; 62
 9ec:	2a 97       	sbiw	r28, 0x0a	; 10
 9ee:	0f b6       	in	r0, 0x3f	; 63
 9f0:	f8 94       	cli
 9f2:	de bf       	out	0x3e, r29	; 62
 9f4:	0f be       	out	0x3f, r0	; 63
 9f6:	cd bf       	out	0x3d, r28	; 61
 9f8:	89 87       	std	Y+9, r24	; 0x09
 9fa:	9a 87       	std	Y+10, r25	; 0x0a
 9fc:	a9 85       	ldd	r26, Y+9	; 0x09
 9fe:	ba 85       	ldd	r27, Y+10	; 0x0a
 a00:	2d 91       	ld	r18, X+
 a02:	3d 91       	ld	r19, X+
 a04:	4d 91       	ld	r20, X+
 a06:	5c 91       	ld	r21, X
 a08:	29 83       	std	Y+1, r18	; 0x01
 a0a:	3a 83       	std	Y+2, r19	; 0x02
 a0c:	4b 83       	std	Y+3, r20	; 0x03
 a0e:	5c 83       	std	Y+4, r21	; 0x04
 a10:	23 2b       	or	r18, r19
 a12:	24 2b       	or	r18, r20
 a14:	25 2b       	or	r18, r21
 a16:	41 f4       	brne	.+16     	; 0xa28 <do_rand+0x4c>
 a18:	24 e2       	ldi	r18, 0x24	; 36
 a1a:	39 ed       	ldi	r19, 0xD9	; 217
 a1c:	4b e5       	ldi	r20, 0x5B	; 91
 a1e:	57 e0       	ldi	r21, 0x07	; 7
 a20:	29 83       	std	Y+1, r18	; 0x01
 a22:	3a 83       	std	Y+2, r19	; 0x02
 a24:	4b 83       	std	Y+3, r20	; 0x03
 a26:	5c 83       	std	Y+4, r21	; 0x04
 a28:	69 81       	ldd	r22, Y+1	; 0x01
 a2a:	7a 81       	ldd	r23, Y+2	; 0x02
 a2c:	8b 81       	ldd	r24, Y+3	; 0x03
 a2e:	9c 81       	ldd	r25, Y+4	; 0x04
 a30:	2d e1       	ldi	r18, 0x1D	; 29
 a32:	33 ef       	ldi	r19, 0xF3	; 243
 a34:	41 e0       	ldi	r20, 0x01	; 1
 a36:	50 e0       	ldi	r21, 0x00	; 0
 a38:	0e 94 6f 05 	call	0xade	; 0xade <__divmodsi4>
 a3c:	69 01       	movw	r12, r18
 a3e:	7a 01       	movw	r14, r20
 a40:	a7 ea       	ldi	r26, 0xA7	; 167
 a42:	b1 e4       	ldi	r27, 0x41	; 65
 a44:	9b 01       	movw	r18, r22
 a46:	ac 01       	movw	r20, r24
 a48:	0e 94 8e 05 	call	0xb1c	; 0xb1c <__muluhisi3>
 a4c:	69 83       	std	Y+1, r22	; 0x01
 a4e:	7a 83       	std	Y+2, r23	; 0x02
 a50:	8b 83       	std	Y+3, r24	; 0x03
 a52:	9c 83       	std	Y+4, r25	; 0x04
 a54:	ac ee       	ldi	r26, 0xEC	; 236
 a56:	b4 ef       	ldi	r27, 0xF4	; 244
 a58:	a7 01       	movw	r20, r14
 a5a:	96 01       	movw	r18, r12
 a5c:	0e 94 9c 05 	call	0xb38	; 0xb38 <__mulohisi3>
 a60:	9b 01       	movw	r18, r22
 a62:	ac 01       	movw	r20, r24
 a64:	89 81       	ldd	r24, Y+1	; 0x01
 a66:	9a 81       	ldd	r25, Y+2	; 0x02
 a68:	ab 81       	ldd	r26, Y+3	; 0x03
 a6a:	bc 81       	ldd	r27, Y+4	; 0x04
 a6c:	82 0f       	add	r24, r18
 a6e:	93 1f       	adc	r25, r19
 a70:	a4 1f       	adc	r26, r20
 a72:	b5 1f       	adc	r27, r21
 a74:	b7 ff       	sbrs	r27, 7
 a76:	03 c0       	rjmp	.+6      	; 0xa7e <do_rand+0xa2>
 a78:	01 97       	sbiw	r24, 0x01	; 1
 a7a:	a1 09       	sbc	r26, r1
 a7c:	b0 48       	sbci	r27, 0x80	; 128
 a7e:	e9 85       	ldd	r30, Y+9	; 0x09
 a80:	fa 85       	ldd	r31, Y+10	; 0x0a
 a82:	80 83       	st	Z, r24
 a84:	91 83       	std	Z+1, r25	; 0x01
 a86:	a2 83       	std	Z+2, r26	; 0x02
 a88:	b3 83       	std	Z+3, r27	; 0x03
 a8a:	9f 77       	andi	r25, 0x7F	; 127
 a8c:	2a 96       	adiw	r28, 0x0a	; 10
 a8e:	0f b6       	in	r0, 0x3f	; 63
 a90:	f8 94       	cli
 a92:	de bf       	out	0x3e, r29	; 62
 a94:	0f be       	out	0x3f, r0	; 63
 a96:	cd bf       	out	0x3d, r28	; 61
 a98:	df 91       	pop	r29
 a9a:	cf 91       	pop	r28
 a9c:	ff 90       	pop	r15
 a9e:	ef 90       	pop	r14
 aa0:	df 90       	pop	r13
 aa2:	cf 90       	pop	r12
 aa4:	08 95       	ret

00000aa6 <rand_r>:
 aa6:	0e 94 ee 04 	call	0x9dc	; 0x9dc <do_rand>
 aaa:	08 95       	ret

00000aac <rand>:
 aac:	81 e1       	ldi	r24, 0x11	; 17
 aae:	91 e0       	ldi	r25, 0x01	; 1
 ab0:	0e 94 ee 04 	call	0x9dc	; 0x9dc <do_rand>
 ab4:	08 95       	ret

00000ab6 <srand>:
 ab6:	b0 e0       	ldi	r27, 0x00	; 0
 ab8:	a0 e0       	ldi	r26, 0x00	; 0
 aba:	80 93 11 01 	sts	0x0111, r24	; 0x800111 <next>
 abe:	90 93 12 01 	sts	0x0112, r25	; 0x800112 <next+0x1>
 ac2:	a0 93 13 01 	sts	0x0113, r26	; 0x800113 <next+0x2>
 ac6:	b0 93 14 01 	sts	0x0114, r27	; 0x800114 <next+0x3>
 aca:	08 95       	ret

00000acc <memcpy_P>:
 acc:	fb 01       	movw	r30, r22
 ace:	dc 01       	movw	r26, r24
 ad0:	02 c0       	rjmp	.+4      	; 0xad6 <memcpy_P+0xa>
 ad2:	05 90       	lpm	r0, Z+
 ad4:	0d 92       	st	X+, r0
 ad6:	41 50       	subi	r20, 0x01	; 1
 ad8:	50 40       	sbci	r21, 0x00	; 0
 ada:	d8 f7       	brcc	.-10     	; 0xad2 <memcpy_P+0x6>
 adc:	08 95       	ret

00000ade <__divmodsi4>:
 ade:	05 2e       	mov	r0, r21
 ae0:	97 fb       	bst	r25, 7
 ae2:	1e f4       	brtc	.+6      	; 0xaea <__divmodsi4+0xc>
 ae4:	00 94       	com	r0
 ae6:	0e 94 86 05 	call	0xb0c	; 0xb0c <__negsi2>
 aea:	57 fd       	sbrc	r21, 7
 aec:	07 d0       	rcall	.+14     	; 0xafc <__divmodsi4_neg2>
 aee:	0e 94 a1 05 	call	0xb42	; 0xb42 <__udivmodsi4>
 af2:	07 fc       	sbrc	r0, 7
 af4:	03 d0       	rcall	.+6      	; 0xafc <__divmodsi4_neg2>
 af6:	4e f4       	brtc	.+18     	; 0xb0a <__divmodsi4_exit>
 af8:	0c 94 86 05 	jmp	0xb0c	; 0xb0c <__negsi2>

00000afc <__divmodsi4_neg2>:
 afc:	50 95       	com	r21
 afe:	40 95       	com	r20
 b00:	30 95       	com	r19
 b02:	21 95       	neg	r18
 b04:	3f 4f       	sbci	r19, 0xFF	; 255
 b06:	4f 4f       	sbci	r20, 0xFF	; 255
 b08:	5f 4f       	sbci	r21, 0xFF	; 255

00000b0a <__divmodsi4_exit>:
 b0a:	08 95       	ret

00000b0c <__negsi2>:
 b0c:	90 95       	com	r25
 b0e:	80 95       	com	r24
 b10:	70 95       	com	r23
 b12:	61 95       	neg	r22
 b14:	7f 4f       	sbci	r23, 0xFF	; 255
 b16:	8f 4f       	sbci	r24, 0xFF	; 255
 b18:	9f 4f       	sbci	r25, 0xFF	; 255
 b1a:	08 95       	ret

00000b1c <__muluhisi3>:
 b1c:	0e 94 c3 05 	call	0xb86	; 0xb86 <__umulhisi3>
 b20:	a5 9f       	mul	r26, r21
 b22:	90 0d       	add	r25, r0
 b24:	b4 9f       	mul	r27, r20
 b26:	90 0d       	add	r25, r0
 b28:	a4 9f       	mul	r26, r20
 b2a:	80 0d       	add	r24, r0
 b2c:	91 1d       	adc	r25, r1
 b2e:	11 24       	eor	r1, r1
 b30:	08 95       	ret

00000b32 <__mulshisi3>:
 b32:	b7 ff       	sbrs	r27, 7
 b34:	0c 94 8e 05 	jmp	0xb1c	; 0xb1c <__muluhisi3>

00000b38 <__mulohisi3>:
 b38:	0e 94 8e 05 	call	0xb1c	; 0xb1c <__muluhisi3>
 b3c:	82 1b       	sub	r24, r18
 b3e:	93 0b       	sbc	r25, r19
 b40:	08 95       	ret

00000b42 <__udivmodsi4>:
 b42:	a1 e2       	ldi	r26, 0x21	; 33
 b44:	1a 2e       	mov	r1, r26
 b46:	aa 1b       	sub	r26, r26
 b48:	bb 1b       	sub	r27, r27
 b4a:	fd 01       	movw	r30, r26
 b4c:	0d c0       	rjmp	.+26     	; 0xb68 <__udivmodsi4_ep>

00000b4e <__udivmodsi4_loop>:
 b4e:	aa 1f       	adc	r26, r26
 b50:	bb 1f       	adc	r27, r27
 b52:	ee 1f       	adc	r30, r30
 b54:	ff 1f       	adc	r31, r31
 b56:	a2 17       	cp	r26, r18
 b58:	b3 07       	cpc	r27, r19
 b5a:	e4 07       	cpc	r30, r20
 b5c:	f5 07       	cpc	r31, r21
 b5e:	20 f0       	brcs	.+8      	; 0xb68 <__udivmodsi4_ep>
 b60:	a2 1b       	sub	r26, r18
 b62:	b3 0b       	sbc	r27, r19
 b64:	e4 0b       	sbc	r30, r20
 b66:	f5 0b       	sbc	r31, r21

00000b68 <__udivmodsi4_ep>:
 b68:	66 1f       	adc	r22, r22
 b6a:	77 1f       	adc	r23, r23
 b6c:	88 1f       	adc	r24, r24
 b6e:	99 1f       	adc	r25, r25
 b70:	1a 94       	dec	r1
 b72:	69 f7       	brne	.-38     	; 0xb4e <__udivmodsi4_loop>
 b74:	60 95       	com	r22
 b76:	70 95       	com	r23
 b78:	80 95       	com	r24
 b7a:	90 95       	com	r25
 b7c:	9b 01       	movw	r18, r22
 b7e:	ac 01       	movw	r20, r24
 b80:	bd 01       	movw	r22, r26
 b82:	cf 01       	movw	r24, r30
 b84:	08 95       	ret

00000b86 <__umulhisi3>:
 b86:	a2 9f       	mul	r26, r18
 b88:	b0 01       	movw	r22, r0
 b8a:	b3 9f       	mul	r27, r19
 b8c:	c0 01       	movw	r24, r0
 b8e:	a3 9f       	mul	r26, r19
 b90:	70 0d       	add	r23, r0
 b92:	81 1d       	adc	r24, r1
 b94:	11 24       	eor	r1, r1
 b96:	91 1d       	adc	r25, r1
 b98:	b2 9f       	mul	r27, r18
 b9a:	70 0d       	add	r23, r0
 b9c:	81 1d       	adc	r24, r1
 b9e:	11 24       	eor	r1, r1
 ba0:	91 1d       	adc	r25, r1
 ba2:	08 95       	ret

00000ba4 <_exit>:
 ba4:	f8 94       	cli

00000ba6 <__stop_program>:
 ba6:	ff cf       	rjmp	.-2      	; 0xba6 <__stop_program>
