
code.elf:     file format elf32-avr


Disassembly of section .text:

00000000 <__vectors>:
   0:	0c 94 24 01 	jmp	0x248	; 0x248 <__ctors_end>
   4:	0c 94 41 01 	jmp	0x282	; 0x282 <__bad_interrupt>
   8:	0c 94 41 01 	jmp	0x282	; 0x282 <__bad_interrupt>
   c:	0c 94 41 01 	jmp	0x282	; 0x282 <__bad_interrupt>
  10:	0c 94 41 01 	jmp	0x282	; 0x282 <__bad_interrupt>
  14:	0c 94 41 01 	jmp	0x282	; 0x282 <__bad_interrupt>
  18:	0c 94 41 01 	jmp	0x282	; 0x282 <__bad_interrupt>
  1c:	0c 94 41 01 	jmp	0x282	; 0x282 <__bad_interrupt>
  20:	0c 94 41 01 	jmp	0x282	; 0x282 <__bad_interrupt>
  24:	0c 94 41 01 	jmp	0x282	; 0x282 <__bad_interrupt>
  28:	0c 94 41 01 	jmp	0x282	; 0x282 <__bad_interrupt>
  2c:	0c 94 41 01 	jmp	0x282	; 0x282 <__bad_interrupt>
  30:	0c 94 41 01 	jmp	0x282	; 0x282 <__bad_interrupt>
  34:	0c 94 41 01 	jmp	0x282	; 0x282 <__bad_interrupt>
  38:	0c 94 41 01 	jmp	0x282	; 0x282 <__bad_interrupt>
  3c:	0c 94 41 01 	jmp	0x282	; 0x282 <__bad_interrupt>
  40:	0c 94 41 01 	jmp	0x282	; 0x282 <__bad_interrupt>
  44:	0c 94 41 01 	jmp	0x282	; 0x282 <__bad_interrupt>
  48:	0c 94 41 01 	jmp	0x282	; 0x282 <__bad_interrupt>
  4c:	0c 94 41 01 	jmp	0x282	; 0x282 <__bad_interrupt>
  50:	0c 94 41 01 	jmp	0x282	; 0x282 <__bad_interrupt>
  54:	0c 94 41 01 	jmp	0x282	; 0x282 <__bad_interrupt>
  58:	0c 94 41 01 	jmp	0x282	; 0x282 <__bad_interrupt>
  5c:	0c 94 41 01 	jmp	0x282	; 0x282 <__bad_interrupt>
  60:	0c 94 41 01 	jmp	0x282	; 0x282 <__bad_interrupt>
  64:	0c 94 41 01 	jmp	0x282	; 0x282 <__bad_interrupt>

00000068 <CHARSET>:
  68:	00 00 00 00 00 00 00 5f 00 00 00 07 00 07 00 14     ......._........
  78:	7f 14 7f 14 24 2a 7f 2a 12 23 13 08 64 62 36 49     ....$*.*.#..db6I
  88:	55 22 50 00 05 03 00 00 00 1c 22 41 00 00 41 22     U"P......."A..A"
  98:	1c 00 14 08 3e 08 14 08 08 3e 08 08 00 50 30 00     ....>....>...P0.
  a8:	00 08 08 08 08 08 00 60 60 00 00 20 10 08 04 02     .......``.. ....
  b8:	3e 51 49 45 3e 00 42 7f 40 00 42 61 51 49 46 21     >QIE>.B.@.BaQIF!
  c8:	41 45 4b 31 18 14 12 7f 10 27 45 45 45 39 3c 4a     AEK1.....'EEE9<J
  d8:	49 49 30 01 71 09 05 03 36 49 49 49 36 06 49 49     II0.q...6III6.II
  e8:	29 1e 00 36 36 00 00 00 56 36 00 00 08 14 22 41     )..66...V6...."A
  f8:	00 14 14 14 14 14 00 41 22 14 08 02 01 51 09 06     .......A"....Q..
 108:	32 49 79 41 3e 7e 11 11 11 7e 7f 49 49 49 36 3e     2IyA>~...~.III6>
 118:	41 41 41 22 7f 41 41 22 1c 7f 49 49 49 41 7f 09     AAA".AA"..IIIA..
 128:	09 09 01 3e 41 49 49 7a 7f 08 08 08 7f 00 41 7f     ...>AIIz......A.
 138:	41 00 20 40 41 3f 01 7f 08 14 22 41 7f 40 40 40     A. @A?...."A.@@@
 148:	40 7f 02 0c 02 7f 7f 04 08 10 7f 3e 41 41 41 3e     @..........>AAA>
 158:	7f 09 09 09 06 3e 41 51 21 5e 7f 09 19 29 46 46     .....>AQ!^...)FF
 168:	49 49 49 31 01 01 7f 01 01 3f 40 40 40 3f 1f 20     III1.....?@@@?. 
 178:	40 20 1f 3f 40 38 40 3f 63 14 08 14 63 07 08 70     @ .?@8@?c...c..p
 188:	08 07 61 51 49 45 43 00 7f 41 41 00 02 04 08 10     ..aQIEC..AA.....
 198:	20 00 41 41 7f 00 04 02 01 02 04 40 40 40 40 40      .AA.......@@@@@
 1a8:	00 01 02 04 00 20 54 54 54 78 7f 48 44 44 38 38     ..... TTTx.HDD88
 1b8:	44 44 44 20 38 44 44 48 7f 38 54 54 54 18 08 7e     DDD 8DDH.8TTT..~
 1c8:	09 01 02 0c 52 52 52 3e 7f 08 04 04 78 00 44 7d     ....RRR>....x.D}
 1d8:	40 00 20 40 44 3d 00 7f 10 28 44 00 00 41 7f 40     @. @D=...(D..A.@
 1e8:	00 7c 04 18 04 78 7c 08 04 04 78 38 44 44 44 38     .|...x|...x8DDD8
 1f8:	7c 14 14 14 08 08 14 14 18 7c 7c 08 04 04 08 48     |........||....H
 208:	54 54 54 20 04 3f 44 40 20 3c 40 40 20 7c 1c 20     TTT .?D@ <@@ |. 
 218:	40 20 1c 3c 40 30 40 3c 44 28 10 28 44 0c 50 50     @ .<@0@<D(.(D.PP
 228:	50 3c 44 64 54 4c 44 00 08 36 41 00 00 00 7f 00     P<DdTLD..6A.....
 238:	00 00 41 36 08 00 10 08 08 10 08 00 00 00 00 00     ..A6............

00000248 <__ctors_end>:
 248:	11 24       	eor	r1, r1
 24a:	1f be       	out	0x3f, r1	; 63
 24c:	cf ef       	ldi	r28, 0xFF	; 255
 24e:	d8 e0       	ldi	r29, 0x08	; 8
 250:	de bf       	out	0x3e, r29	; 62
 252:	cd bf       	out	0x3d, r28	; 61

00000254 <__do_copy_data>:
 254:	11 e0       	ldi	r17, 0x01	; 1
 256:	a0 e0       	ldi	r26, 0x00	; 0
 258:	b1 e0       	ldi	r27, 0x01	; 1
 25a:	ea e9       	ldi	r30, 0x9A	; 154
 25c:	f6 e0       	ldi	r31, 0x06	; 6
 25e:	02 c0       	rjmp	.+4      	; 0x264 <__do_copy_data+0x10>
 260:	05 90       	lpm	r0, Z+
 262:	0d 92       	st	X+, r0
 264:	ac 31       	cpi	r26, 0x1C	; 28
 266:	b1 07       	cpc	r27, r17
 268:	d9 f7       	brne	.-10     	; 0x260 <__do_copy_data+0xc>

0000026a <__do_clear_bss>:
 26a:	23 e0       	ldi	r18, 0x03	; 3
 26c:	ac e1       	ldi	r26, 0x1C	; 28
 26e:	b1 e0       	ldi	r27, 0x01	; 1
 270:	01 c0       	rjmp	.+2      	; 0x274 <.do_clear_bss_start>

00000272 <.do_clear_bss_loop>:
 272:	1d 92       	st	X+, r1

00000274 <.do_clear_bss_start>:
 274:	a6 35       	cpi	r26, 0x56	; 86
 276:	b2 07       	cpc	r27, r18
 278:	e1 f7       	brne	.-8      	; 0x272 <.do_clear_bss_loop>
 27a:	0e 94 de 02 	call	0x5bc	; 0x5bc <main>
 27e:	0c 94 4b 03 	jmp	0x696	; 0x696 <_exit>

00000282 <__bad_interrupt>:
 282:	0c 94 00 00 	jmp	0	; 0x0 <__vectors>

00000286 <atualiza_lcd>:
 286:	08 95       	ret

00000288 <inicia_rua>:
 288:	cf 93       	push	r28
 28a:	df 93       	push	r29
 28c:	ec 01       	movw	r28, r24
 28e:	68 2f       	mov	r22, r24
 290:	81 e0       	ldi	r24, 0x01	; 1
 292:	0e 94 c4 02 	call	0x588	; 0x588 <nokia_lcd_set_cursor>
 296:	63 e0       	ldi	r22, 0x03	; 3
 298:	84 e1       	ldi	r24, 0x14	; 20
 29a:	91 e0       	ldi	r25, 0x01	; 1
 29c:	0e 94 b4 02 	call	0x568	; 0x568 <nokia_lcd_write_string>
 2a0:	6c 2f       	mov	r22, r28
 2a2:	80 e1       	ldi	r24, 0x10	; 16
 2a4:	0e 94 c4 02 	call	0x588	; 0x588 <nokia_lcd_set_cursor>
 2a8:	63 e0       	ldi	r22, 0x03	; 3
 2aa:	84 e1       	ldi	r24, 0x14	; 20
 2ac:	91 e0       	ldi	r25, 0x01	; 1
 2ae:	0e 94 b4 02 	call	0x568	; 0x568 <nokia_lcd_write_string>
 2b2:	6c 2f       	mov	r22, r28
 2b4:	8f e1       	ldi	r24, 0x1F	; 31
 2b6:	0e 94 c4 02 	call	0x588	; 0x588 <nokia_lcd_set_cursor>
 2ba:	63 e0       	ldi	r22, 0x03	; 3
 2bc:	84 e1       	ldi	r24, 0x14	; 20
 2be:	91 e0       	ldi	r25, 0x01	; 1
 2c0:	0e 94 b4 02 	call	0x568	; 0x568 <nokia_lcd_write_string>
 2c4:	6c 2f       	mov	r22, r28
 2c6:	8e e2       	ldi	r24, 0x2E	; 46
 2c8:	0e 94 c4 02 	call	0x588	; 0x588 <nokia_lcd_set_cursor>
 2cc:	63 e0       	ldi	r22, 0x03	; 3
 2ce:	84 e1       	ldi	r24, 0x14	; 20
 2d0:	91 e0       	ldi	r25, 0x01	; 1
 2d2:	0e 94 b4 02 	call	0x568	; 0x568 <nokia_lcd_write_string>
 2d6:	6c 2f       	mov	r22, r28
 2d8:	8d e3       	ldi	r24, 0x3D	; 61
 2da:	0e 94 c4 02 	call	0x588	; 0x588 <nokia_lcd_set_cursor>
 2de:	63 e0       	ldi	r22, 0x03	; 3
 2e0:	86 e1       	ldi	r24, 0x16	; 22
 2e2:	91 e0       	ldi	r25, 0x01	; 1
 2e4:	0e 94 b4 02 	call	0x568	; 0x568 <nokia_lcd_write_string>
 2e8:	df 91       	pop	r29
 2ea:	cf 91       	pop	r28
 2ec:	0c 94 c9 02 	jmp	0x592	; 0x592 <nokia_lcd_render>

000002f0 <write>:
 2f0:	29 98       	cbi	0x05, 1	; 5
 2f2:	66 23       	and	r22, r22
 2f4:	a9 f0       	breq	.+42     	; 0x320 <write+0x30>
 2f6:	2b 9a       	sbi	0x05, 3	; 5
 2f8:	27 e0       	ldi	r18, 0x07	; 7
 2fa:	30 e0       	ldi	r19, 0x00	; 0
 2fc:	90 e0       	ldi	r25, 0x00	; 0
 2fe:	ac 01       	movw	r20, r24
 300:	02 2e       	mov	r0, r18
 302:	02 c0       	rjmp	.+4      	; 0x308 <write+0x18>
 304:	55 95       	asr	r21
 306:	47 95       	ror	r20
 308:	0a 94       	dec	r0
 30a:	e2 f7       	brpl	.-8      	; 0x304 <write+0x14>
 30c:	40 ff       	sbrs	r20, 0
 30e:	0a c0       	rjmp	.+20     	; 0x324 <write+0x34>
 310:	2c 9a       	sbi	0x05, 4	; 5
 312:	2d 9a       	sbi	0x05, 5	; 5
 314:	2d 98       	cbi	0x05, 5	; 5
 316:	21 50       	subi	r18, 0x01	; 1
 318:	31 09       	sbc	r19, r1
 31a:	88 f7       	brcc	.-30     	; 0x2fe <write+0xe>
 31c:	29 9a       	sbi	0x05, 1	; 5
 31e:	08 95       	ret
 320:	2b 98       	cbi	0x05, 3	; 5
 322:	ea cf       	rjmp	.-44     	; 0x2f8 <write+0x8>
 324:	2c 98       	cbi	0x05, 4	; 5
 326:	f5 cf       	rjmp	.-22     	; 0x312 <write+0x22>

00000328 <write_cmd>:
 328:	60 e0       	ldi	r22, 0x00	; 0
 32a:	0c 94 78 01 	jmp	0x2f0	; 0x2f0 <write>

0000032e <nokia_lcd_init>:
 32e:	cf 93       	push	r28
 330:	df 93       	push	r29
 332:	21 9a       	sbi	0x04, 1	; 4
 334:	22 9a       	sbi	0x04, 2	; 4
 336:	23 9a       	sbi	0x04, 3	; 4
 338:	24 9a       	sbi	0x04, 4	; 4
 33a:	25 9a       	sbi	0x04, 5	; 4
 33c:	2a 9a       	sbi	0x05, 2	; 5
 33e:	29 9a       	sbi	0x05, 1	; 5
 340:	8f e3       	ldi	r24, 0x3F	; 63
 342:	9c e9       	ldi	r25, 0x9C	; 156
 344:	01 97       	sbiw	r24, 0x01	; 1
 346:	f1 f7       	brne	.-4      	; 0x344 <nokia_lcd_init+0x16>
 348:	00 c0       	rjmp	.+0      	; 0x34a <nokia_lcd_init+0x1c>
 34a:	00 00       	nop
 34c:	2a 98       	cbi	0x05, 2	; 5
 34e:	9f ef       	ldi	r25, 0xFF	; 255
 350:	2a e6       	ldi	r18, 0x6A	; 106
 352:	83 e0       	ldi	r24, 0x03	; 3
 354:	91 50       	subi	r25, 0x01	; 1
 356:	20 40       	sbci	r18, 0x00	; 0
 358:	80 40       	sbci	r24, 0x00	; 0
 35a:	e1 f7       	brne	.-8      	; 0x354 <nokia_lcd_init+0x26>
 35c:	00 c0       	rjmp	.+0      	; 0x35e <nokia_lcd_init+0x30>
 35e:	00 00       	nop
 360:	2a 9a       	sbi	0x05, 2	; 5
 362:	29 98       	cbi	0x05, 1	; 5
 364:	81 e2       	ldi	r24, 0x21	; 33
 366:	0e 94 94 01 	call	0x328	; 0x328 <write_cmd>
 36a:	83 e1       	ldi	r24, 0x13	; 19
 36c:	0e 94 94 01 	call	0x328	; 0x328 <write_cmd>
 370:	86 e0       	ldi	r24, 0x06	; 6
 372:	0e 94 94 01 	call	0x328	; 0x328 <write_cmd>
 376:	82 ec       	ldi	r24, 0xC2	; 194
 378:	0e 94 94 01 	call	0x328	; 0x328 <write_cmd>
 37c:	80 e2       	ldi	r24, 0x20	; 32
 37e:	0e 94 94 01 	call	0x328	; 0x328 <write_cmd>
 382:	89 e0       	ldi	r24, 0x09	; 9
 384:	0e 94 94 01 	call	0x328	; 0x328 <write_cmd>
 388:	80 e8       	ldi	r24, 0x80	; 128
 38a:	0e 94 94 01 	call	0x328	; 0x328 <write_cmd>
 38e:	80 e4       	ldi	r24, 0x40	; 64
 390:	0e 94 94 01 	call	0x328	; 0x328 <write_cmd>
 394:	c8 ef       	ldi	r28, 0xF8	; 248
 396:	d1 e0       	ldi	r29, 0x01	; 1
 398:	61 e0       	ldi	r22, 0x01	; 1
 39a:	80 e0       	ldi	r24, 0x00	; 0
 39c:	0e 94 78 01 	call	0x2f0	; 0x2f0 <write>
 3a0:	21 97       	sbiw	r28, 0x01	; 1
 3a2:	d1 f7       	brne	.-12     	; 0x398 <nokia_lcd_init+0x6a>
 3a4:	88 e0       	ldi	r24, 0x08	; 8
 3a6:	0e 94 94 01 	call	0x328	; 0x328 <write_cmd>
 3aa:	8c e0       	ldi	r24, 0x0C	; 12
 3ac:	df 91       	pop	r29
 3ae:	cf 91       	pop	r28
 3b0:	0c 94 94 01 	jmp	0x328	; 0x328 <write_cmd>

000003b4 <nokia_lcd_clear>:
 3b4:	80 e8       	ldi	r24, 0x80	; 128
 3b6:	0e 94 94 01 	call	0x328	; 0x328 <write_cmd>
 3ba:	80 e4       	ldi	r24, 0x40	; 64
 3bc:	0e 94 94 01 	call	0x328	; 0x328 <write_cmd>
 3c0:	10 92 54 03 	sts	0x0354, r1	; 0x800354 <nokia_lcd+0x1f8>
 3c4:	10 92 55 03 	sts	0x0355, r1	; 0x800355 <nokia_lcd+0x1f9>
 3c8:	ec e5       	ldi	r30, 0x5C	; 92
 3ca:	f1 e0       	ldi	r31, 0x01	; 1
 3cc:	88 ef       	ldi	r24, 0xF8	; 248
 3ce:	91 e0       	ldi	r25, 0x01	; 1
 3d0:	df 01       	movw	r26, r30
 3d2:	9c 01       	movw	r18, r24
 3d4:	1d 92       	st	X+, r1
 3d6:	21 50       	subi	r18, 0x01	; 1
 3d8:	30 40       	sbci	r19, 0x00	; 0
 3da:	e1 f7       	brne	.-8      	; 0x3d4 <nokia_lcd_clear+0x20>
 3dc:	08 95       	ret

000003de <nokia_lcd_power>:
 3de:	81 11       	cpse	r24, r1
 3e0:	03 c0       	rjmp	.+6      	; 0x3e8 <nokia_lcd_power+0xa>
 3e2:	84 e2       	ldi	r24, 0x24	; 36
 3e4:	0c 94 94 01 	jmp	0x328	; 0x328 <write_cmd>
 3e8:	80 e2       	ldi	r24, 0x20	; 32
 3ea:	fc cf       	rjmp	.-8      	; 0x3e4 <nokia_lcd_power+0x6>

000003ec <nokia_lcd_set_pixel>:
 3ec:	96 2f       	mov	r25, r22
 3ee:	96 95       	lsr	r25
 3f0:	96 95       	lsr	r25
 3f2:	96 95       	lsr	r25
 3f4:	e8 2f       	mov	r30, r24
 3f6:	f0 e0       	ldi	r31, 0x00	; 0
 3f8:	84 e5       	ldi	r24, 0x54	; 84
 3fa:	98 9f       	mul	r25, r24
 3fc:	e0 0d       	add	r30, r0
 3fe:	f1 1d       	adc	r31, r1
 400:	11 24       	eor	r1, r1
 402:	e4 5a       	subi	r30, 0xA4	; 164
 404:	fe 4f       	sbci	r31, 0xFE	; 254
 406:	20 81       	ld	r18, Z
 408:	67 70       	andi	r22, 0x07	; 7
 40a:	81 e0       	ldi	r24, 0x01	; 1
 40c:	90 e0       	ldi	r25, 0x00	; 0
 40e:	01 c0       	rjmp	.+2      	; 0x412 <__LOCK_REGION_LENGTH__+0x12>
 410:	88 0f       	add	r24, r24
 412:	6a 95       	dec	r22
 414:	ea f7       	brpl	.-6      	; 0x410 <__LOCK_REGION_LENGTH__+0x10>
 416:	44 23       	and	r20, r20
 418:	19 f0       	breq	.+6      	; 0x420 <__LOCK_REGION_LENGTH__+0x20>
 41a:	28 2b       	or	r18, r24
 41c:	20 83       	st	Z, r18
 41e:	08 95       	ret
 420:	80 95       	com	r24
 422:	28 23       	and	r18, r24
 424:	fb cf       	rjmp	.-10     	; 0x41c <__LOCK_REGION_LENGTH__+0x1c>

00000426 <nokia_lcd_write_char>:
 426:	8f 92       	push	r8
 428:	9f 92       	push	r9
 42a:	af 92       	push	r10
 42c:	bf 92       	push	r11
 42e:	df 92       	push	r13
 430:	ef 92       	push	r14
 432:	ff 92       	push	r15
 434:	0f 93       	push	r16
 436:	1f 93       	push	r17
 438:	cf 93       	push	r28
 43a:	df 93       	push	r29
 43c:	00 d0       	rcall	.+0      	; 0x43e <nokia_lcd_write_char+0x18>
 43e:	00 d0       	rcall	.+0      	; 0x440 <nokia_lcd_write_char+0x1a>
 440:	0f 92       	push	r0
 442:	cd b7       	in	r28, 0x3d	; 61
 444:	de b7       	in	r29, 0x3e	; 62
 446:	e8 2f       	mov	r30, r24
 448:	f6 2e       	mov	r15, r22
 44a:	80 32       	cpi	r24, 0x20	; 32
 44c:	0c f4       	brge	.+2      	; 0x450 <nokia_lcd_write_char+0x2a>
 44e:	4d c0       	rjmp	.+154    	; 0x4ea <nokia_lcd_write_char+0xc4>
 450:	e0 52       	subi	r30, 0x20	; 32
 452:	85 e0       	ldi	r24, 0x05	; 5
 454:	e8 02       	muls	r30, r24
 456:	b0 01       	movw	r22, r0
 458:	11 24       	eor	r1, r1
 45a:	68 59       	subi	r22, 0x98	; 152
 45c:	7f 4f       	sbci	r23, 0xFF	; 255
 45e:	45 e0       	ldi	r20, 0x05	; 5
 460:	50 e0       	ldi	r21, 0x00	; 0
 462:	ce 01       	movw	r24, r28
 464:	01 96       	adiw	r24, 0x01	; 1
 466:	0e 94 42 03 	call	0x684	; 0x684 <memcpy_P>
 46a:	8e 01       	movw	r16, r28
 46c:	0f 5f       	subi	r16, 0xFF	; 255
 46e:	1f 4f       	sbci	r17, 0xFF	; 255
 470:	95 e0       	ldi	r25, 0x05	; 5
 472:	f9 9e       	mul	r15, r25
 474:	50 01       	movw	r10, r0
 476:	11 24       	eor	r1, r1
 478:	87 e0       	ldi	r24, 0x07	; 7
 47a:	f8 9e       	mul	r15, r24
 47c:	40 01       	movw	r8, r0
 47e:	11 24       	eor	r1, r1
 480:	e1 2c       	mov	r14, r1
 482:	ea 14       	cp	r14, r10
 484:	1b 04       	cpc	r1, r11
 486:	0c f4       	brge	.+2      	; 0x48a <nokia_lcd_write_char+0x64>
 488:	63 c0       	rjmp	.+198    	; 0x550 <nokia_lcd_write_char+0x12a>
 48a:	80 91 54 03 	lds	r24, 0x0354	; 0x800354 <nokia_lcd+0x1f8>
 48e:	8f 5f       	subi	r24, 0xFF	; 255
 490:	9f 2d       	mov	r25, r15
 492:	99 0f       	add	r25, r25
 494:	99 0f       	add	r25, r25
 496:	9f 0d       	add	r25, r15
 498:	89 0f       	add	r24, r25
 49a:	80 93 54 03 	sts	0x0354, r24	; 0x800354 <nokia_lcd+0x1f8>
 49e:	84 35       	cpi	r24, 0x54	; 84
 4a0:	58 f0       	brcs	.+22     	; 0x4b8 <nokia_lcd_write_char+0x92>
 4a2:	80 91 55 03 	lds	r24, 0x0355	; 0x800355 <nokia_lcd+0x1f9>
 4a6:	10 92 54 03 	sts	0x0354, r1	; 0x800354 <nokia_lcd+0x1f8>
 4aa:	8f 5f       	subi	r24, 0xFF	; 255
 4ac:	97 e0       	ldi	r25, 0x07	; 7
 4ae:	f9 9e       	mul	r15, r25
 4b0:	80 0d       	add	r24, r0
 4b2:	11 24       	eor	r1, r1
 4b4:	80 93 55 03 	sts	0x0355, r24	; 0x800355 <nokia_lcd+0x1f9>
 4b8:	80 91 55 03 	lds	r24, 0x0355	; 0x800355 <nokia_lcd+0x1f9>
 4bc:	80 33       	cpi	r24, 0x30	; 48
 4be:	20 f0       	brcs	.+8      	; 0x4c8 <nokia_lcd_write_char+0xa2>
 4c0:	10 92 54 03 	sts	0x0354, r1	; 0x800354 <nokia_lcd+0x1f8>
 4c4:	10 92 55 03 	sts	0x0355, r1	; 0x800355 <nokia_lcd+0x1f9>
 4c8:	0f 90       	pop	r0
 4ca:	0f 90       	pop	r0
 4cc:	0f 90       	pop	r0
 4ce:	0f 90       	pop	r0
 4d0:	0f 90       	pop	r0
 4d2:	df 91       	pop	r29
 4d4:	cf 91       	pop	r28
 4d6:	1f 91       	pop	r17
 4d8:	0f 91       	pop	r16
 4da:	ff 90       	pop	r15
 4dc:	ef 90       	pop	r14
 4de:	df 90       	pop	r13
 4e0:	bf 90       	pop	r11
 4e2:	af 90       	pop	r10
 4e4:	9f 90       	pop	r9
 4e6:	8f 90       	pop	r8
 4e8:	08 95       	ret
 4ea:	ee 0f       	add	r30, r30
 4ec:	ff 0b       	sbc	r31, r31
 4ee:	e4 5e       	subi	r30, 0xE4	; 228
 4f0:	fe 4f       	sbci	r31, 0xFE	; 254
 4f2:	00 81       	ld	r16, Z
 4f4:	11 81       	ldd	r17, Z+1	; 0x01
 4f6:	01 15       	cp	r16, r1
 4f8:	11 05       	cpc	r17, r1
 4fa:	09 f0       	breq	.+2      	; 0x4fe <nokia_lcd_write_char+0xd8>
 4fc:	b9 cf       	rjmp	.-142    	; 0x470 <nokia_lcd_write_char+0x4a>
 4fe:	45 e0       	ldi	r20, 0x05	; 5
 500:	50 e0       	ldi	r21, 0x00	; 0
 502:	68 e6       	ldi	r22, 0x68	; 104
 504:	70 e0       	ldi	r23, 0x00	; 0
 506:	ad cf       	rjmp	.-166    	; 0x462 <nokia_lcd_write_char+0x3c>
 508:	ed 0d       	add	r30, r13
 50a:	5e 0d       	add	r21, r14
 50c:	8e 2d       	mov	r24, r14
 50e:	6f 2d       	mov	r22, r15
 510:	0e 94 36 03 	call	0x66c	; 0x66c <__udivmodqi4>
 514:	d8 01       	movw	r26, r16
 516:	a8 0f       	add	r26, r24
 518:	b1 1d       	adc	r27, r1
 51a:	2c 91       	ld	r18, X
 51c:	30 e0       	ldi	r19, 0x00	; 0
 51e:	8d 2d       	mov	r24, r13
 520:	0e 94 36 03 	call	0x66c	; 0x66c <__udivmodqi4>
 524:	02 c0       	rjmp	.+4      	; 0x52a <nokia_lcd_write_char+0x104>
 526:	35 95       	asr	r19
 528:	27 95       	ror	r18
 52a:	8a 95       	dec	r24
 52c:	e2 f7       	brpl	.-8      	; 0x526 <nokia_lcd_write_char+0x100>
 52e:	41 e0       	ldi	r20, 0x01	; 1
 530:	20 ff       	sbrs	r18, 0
 532:	40 e0       	ldi	r20, 0x00	; 0
 534:	6e 2f       	mov	r22, r30
 536:	85 2f       	mov	r24, r21
 538:	0e 94 f6 01 	call	0x3ec	; 0x3ec <nokia_lcd_set_pixel>
 53c:	d3 94       	inc	r13
 53e:	e0 91 55 03 	lds	r30, 0x0355	; 0x800355 <nokia_lcd+0x1f9>
 542:	50 91 54 03 	lds	r21, 0x0354	; 0x800354 <nokia_lcd+0x1f8>
 546:	d8 14       	cp	r13, r8
 548:	19 04       	cpc	r1, r9
 54a:	f4 f2       	brlt	.-68     	; 0x508 <nokia_lcd_write_char+0xe2>
 54c:	e3 94       	inc	r14
 54e:	99 cf       	rjmp	.-206    	; 0x482 <nokia_lcd_write_char+0x5c>
 550:	d1 2c       	mov	r13, r1
 552:	f5 cf       	rjmp	.-22     	; 0x53e <nokia_lcd_write_char+0x118>

00000554 <nokia_lcd_custom>:
 554:	e8 2f       	mov	r30, r24
 556:	80 32       	cpi	r24, 0x20	; 32
 558:	34 f4       	brge	.+12     	; 0x566 <nokia_lcd_custom+0x12>
 55a:	ee 0f       	add	r30, r30
 55c:	ff 0b       	sbc	r31, r31
 55e:	e4 5e       	subi	r30, 0xE4	; 228
 560:	fe 4f       	sbci	r31, 0xFE	; 254
 562:	71 83       	std	Z+1, r23	; 0x01
 564:	60 83       	st	Z, r22
 566:	08 95       	ret

00000568 <nokia_lcd_write_string>:
 568:	1f 93       	push	r17
 56a:	cf 93       	push	r28
 56c:	df 93       	push	r29
 56e:	16 2f       	mov	r17, r22
 570:	ec 01       	movw	r28, r24
 572:	89 91       	ld	r24, Y+
 574:	81 11       	cpse	r24, r1
 576:	04 c0       	rjmp	.+8      	; 0x580 <nokia_lcd_write_string+0x18>
 578:	df 91       	pop	r29
 57a:	cf 91       	pop	r28
 57c:	1f 91       	pop	r17
 57e:	08 95       	ret
 580:	61 2f       	mov	r22, r17
 582:	0e 94 13 02 	call	0x426	; 0x426 <nokia_lcd_write_char>
 586:	f5 cf       	rjmp	.-22     	; 0x572 <nokia_lcd_write_string+0xa>

00000588 <nokia_lcd_set_cursor>:
 588:	80 93 54 03 	sts	0x0354, r24	; 0x800354 <nokia_lcd+0x1f8>
 58c:	60 93 55 03 	sts	0x0355, r22	; 0x800355 <nokia_lcd+0x1f9>
 590:	08 95       	ret

00000592 <nokia_lcd_render>:
 592:	cf 93       	push	r28
 594:	df 93       	push	r29
 596:	80 e8       	ldi	r24, 0x80	; 128
 598:	0e 94 94 01 	call	0x328	; 0x328 <write_cmd>
 59c:	80 e4       	ldi	r24, 0x40	; 64
 59e:	0e 94 94 01 	call	0x328	; 0x328 <write_cmd>
 5a2:	cc e5       	ldi	r28, 0x5C	; 92
 5a4:	d1 e0       	ldi	r29, 0x01	; 1
 5a6:	61 e0       	ldi	r22, 0x01	; 1
 5a8:	89 91       	ld	r24, Y+
 5aa:	0e 94 78 01 	call	0x2f0	; 0x2f0 <write>
 5ae:	83 e0       	ldi	r24, 0x03	; 3
 5b0:	c4 35       	cpi	r28, 0x54	; 84
 5b2:	d8 07       	cpc	r29, r24
 5b4:	c1 f7       	brne	.-16     	; 0x5a6 <nokia_lcd_render+0x14>
 5b6:	df 91       	pop	r29
 5b8:	cf 91       	pop	r28
 5ba:	08 95       	ret

000005bc <main>:
 5bc:	0e 94 97 01 	call	0x32e	; 0x32e <nokia_lcd_init>
 5c0:	0e 94 da 01 	call	0x3b4	; 0x3b4 <nokia_lcd_clear>
 5c4:	6a e0       	ldi	r22, 0x0A	; 10
 5c6:	71 e0       	ldi	r23, 0x01	; 1
 5c8:	82 e0       	ldi	r24, 0x02	; 2
 5ca:	0e 94 aa 02 	call	0x554	; 0x554 <nokia_lcd_custom>
 5ce:	62 e2       	ldi	r22, 0x22	; 34
 5d0:	82 e2       	ldi	r24, 0x22	; 34
 5d2:	0e 94 c4 02 	call	0x588	; 0x588 <nokia_lcd_set_cursor>
 5d6:	62 e0       	ldi	r22, 0x02	; 2
 5d8:	88 e1       	ldi	r24, 0x18	; 24
 5da:	91 e0       	ldi	r25, 0x01	; 1
 5dc:	0e 94 b4 02 	call	0x568	; 0x568 <nokia_lcd_write_string>
 5e0:	65 e0       	ldi	r22, 0x05	; 5
 5e2:	71 e0       	ldi	r23, 0x01	; 1
 5e4:	83 e0       	ldi	r24, 0x03	; 3
 5e6:	0e 94 aa 02 	call	0x554	; 0x554 <nokia_lcd_custom>
 5ea:	60 e0       	ldi	r22, 0x00	; 0
 5ec:	71 e0       	ldi	r23, 0x01	; 1
 5ee:	84 e0       	ldi	r24, 0x04	; 4
 5f0:	0e 94 aa 02 	call	0x554	; 0x554 <nokia_lcd_custom>
 5f4:	6f e0       	ldi	r22, 0x0F	; 15
 5f6:	71 e0       	ldi	r23, 0x01	; 1
 5f8:	85 e0       	ldi	r24, 0x05	; 5
 5fa:	0e 94 aa 02 	call	0x554	; 0x554 <nokia_lcd_custom>
 5fe:	90 e0       	ldi	r25, 0x00	; 0
 600:	80 e0       	ldi	r24, 0x00	; 0
 602:	0e 94 44 01 	call	0x288	; 0x288 <inicia_rua>
 606:	8c e0       	ldi	r24, 0x0C	; 12
 608:	90 e0       	ldi	r25, 0x00	; 0
 60a:	0e 94 44 01 	call	0x288	; 0x288 <inicia_rua>
 60e:	88 e1       	ldi	r24, 0x18	; 24
 610:	90 e0       	ldi	r25, 0x00	; 0
 612:	0e 94 44 01 	call	0x288	; 0x288 <inicia_rua>
 616:	84 e2       	ldi	r24, 0x24	; 36
 618:	90 e0       	ldi	r25, 0x00	; 0
 61a:	0e 94 44 01 	call	0x288	; 0x288 <inicia_rua>
 61e:	6a e0       	ldi	r22, 0x0A	; 10
 620:	71 e0       	ldi	r23, 0x01	; 1
 622:	82 e0       	ldi	r24, 0x02	; 2
 624:	0e 94 aa 02 	call	0x554	; 0x554 <nokia_lcd_custom>
 628:	65 e2       	ldi	r22, 0x25	; 37
 62a:	82 e2       	ldi	r24, 0x22	; 34
 62c:	0e 94 c4 02 	call	0x588	; 0x588 <nokia_lcd_set_cursor>
 630:	62 e0       	ldi	r22, 0x02	; 2
 632:	88 e1       	ldi	r24, 0x18	; 24
 634:	91 e0       	ldi	r25, 0x01	; 1
 636:	0e 94 b4 02 	call	0x568	; 0x568 <nokia_lcd_write_string>
 63a:	0e 94 c9 02 	call	0x592	; 0x592 <nokia_lcd_render>
 63e:	c0 e0       	ldi	r28, 0x00	; 0
 640:	6c 2f       	mov	r22, r28
 642:	82 e2       	ldi	r24, 0x22	; 34
 644:	0e 94 c4 02 	call	0x588	; 0x588 <nokia_lcd_set_cursor>
 648:	62 e0       	ldi	r22, 0x02	; 2
 64a:	8a e1       	ldi	r24, 0x1A	; 26
 64c:	91 e0       	ldi	r25, 0x01	; 1
 64e:	0e 94 b4 02 	call	0x568	; 0x568 <nokia_lcd_write_string>
 652:	0e 94 c9 02 	call	0x592	; 0x592 <nokia_lcd_render>
 656:	2f ef       	ldi	r18, 0xFF	; 255
 658:	89 e6       	ldi	r24, 0x69	; 105
 65a:	98 e1       	ldi	r25, 0x18	; 24
 65c:	21 50       	subi	r18, 0x01	; 1
 65e:	80 40       	sbci	r24, 0x00	; 0
 660:	90 40       	sbci	r25, 0x00	; 0
 662:	e1 f7       	brne	.-8      	; 0x65c <main+0xa0>
 664:	00 c0       	rjmp	.+0      	; 0x666 <main+0xaa>
 666:	00 00       	nop
 668:	cf 5f       	subi	r28, 0xFF	; 255
 66a:	ea cf       	rjmp	.-44     	; 0x640 <main+0x84>

0000066c <__udivmodqi4>:
 66c:	99 1b       	sub	r25, r25
 66e:	79 e0       	ldi	r23, 0x09	; 9
 670:	04 c0       	rjmp	.+8      	; 0x67a <__udivmodqi4_ep>

00000672 <__udivmodqi4_loop>:
 672:	99 1f       	adc	r25, r25
 674:	96 17       	cp	r25, r22
 676:	08 f0       	brcs	.+2      	; 0x67a <__udivmodqi4_ep>
 678:	96 1b       	sub	r25, r22

0000067a <__udivmodqi4_ep>:
 67a:	88 1f       	adc	r24, r24
 67c:	7a 95       	dec	r23
 67e:	c9 f7       	brne	.-14     	; 0x672 <__udivmodqi4_loop>
 680:	80 95       	com	r24
 682:	08 95       	ret

00000684 <memcpy_P>:
 684:	fb 01       	movw	r30, r22
 686:	dc 01       	movw	r26, r24
 688:	02 c0       	rjmp	.+4      	; 0x68e <memcpy_P+0xa>
 68a:	05 90       	lpm	r0, Z+
 68c:	0d 92       	st	X+, r0
 68e:	41 50       	subi	r20, 0x01	; 1
 690:	50 40       	sbci	r21, 0x00	; 0
 692:	d8 f7       	brcc	.-10     	; 0x68a <memcpy_P+0x6>
 694:	08 95       	ret

00000696 <_exit>:
 696:	f8 94       	cli

00000698 <__stop_program>:
 698:	ff cf       	rjmp	.-2      	; 0x698 <__stop_program>
